
game:     file format elf32-i386


Disassembly of section .text:

00800000 <sulp>:
  800000:	55                   	push   %ebp
  800001:	89 e5                	mov    %esp,%ebp
  800003:	53                   	push   %ebx
  800004:	89 cb                	mov    %ecx,%ebx
  800006:	83 ec 14             	sub    $0x14,%esp
  800009:	89 45 f0             	mov    %eax,-0x10(%ebp)
  80000c:	89 55 f4             	mov    %edx,-0xc(%ebp)
  80000f:	dd 45 f0             	fldl   -0x10(%ebp)
  800012:	dd 1c 24             	fstpl  (%esp)
  800015:	e8 56 ad 03 00       	call   83ad70 <__ulp>
  80001a:	85 db                	test   %ebx,%ebx
  80001c:	74 2c                	je     80004a <sulp+0x4a>
  80001e:	8b 55 f4             	mov    -0xc(%ebp),%edx
  800021:	b8 6b 00 00 00       	mov    $0x6b,%eax
  800026:	81 e2 00 00 f0 7f    	and    $0x7ff00000,%edx
  80002c:	c1 ea 14             	shr    $0x14,%edx
  80002f:	29 d0                	sub    %edx,%eax
  800031:	85 c0                	test   %eax,%eax
  800033:	7e 15                	jle    80004a <sulp+0x4a>
  800035:	c1 e0 14             	shl    $0x14,%eax
  800038:	05 00 00 f0 3f       	add    $0x3ff00000,%eax
  80003d:	89 45 f4             	mov    %eax,-0xc(%ebp)
  800040:	c7 45 f0 00 00 00 00 	movl   $0x0,-0x10(%ebp)
  800047:	dc 4d f0             	fmull  -0x10(%ebp)
  80004a:	83 c4 14             	add    $0x14,%esp
  80004d:	5b                   	pop    %ebx
  80004e:	5d                   	pop    %ebp
  80004f:	c3                   	ret    

00800050 <cli>:
  800050:	55                   	push   %ebp
  800051:	89 e5                	mov    %esp,%ebp
  800053:	e8 26 02 00 00       	call   80027e <__x86.get_pc_thunk.ax>
  800058:	05 a8 af 04 00       	add    $0x4afa8,%eax
  80005d:	fa                   	cli    
  80005e:	90                   	nop
  80005f:	5d                   	pop    %ebp
  800060:	c3                   	ret    

00800061 <draw_pixel>:
  800061:	55                   	push   %ebp
  800062:	89 e5                	mov    %esp,%ebp
  800064:	53                   	push   %ebx
  800065:	83 ec 04             	sub    $0x4,%esp
  800068:	e8 15 02 00 00       	call   800282 <__x86.get_pc_thunk.bx>
  80006d:	81 c3 93 af 04 00    	add    $0x4af93,%ebx
  800073:	83 7d 08 00          	cmpl   $0x0,0x8(%ebp)
  800077:	78 18                	js     800091 <draw_pixel+0x30>
  800079:	83 7d 0c 00          	cmpl   $0x0,0xc(%ebp)
  80007d:	78 12                	js     800091 <draw_pixel+0x30>
  80007f:	81 7d 08 c7 00 00 00 	cmpl   $0xc7,0x8(%ebp)
  800086:	7f 09                	jg     800091 <draw_pixel+0x30>
  800088:	81 7d 0c 3f 01 00 00 	cmpl   $0x13f,0xc(%ebp)
  80008f:	7e 34                	jle    8000c5 <draw_pixel+0x64>
  800091:	e8 ba ff ff ff       	call   800050 <cli>
  800096:	83 ec 0c             	sub    $0xc,%esp
  800099:	8d 83 80 63 ff ff    	lea    -0x9c80(%ebx),%eax
  80009f:	50                   	push   %eax
  8000a0:	8d 83 54 64 ff ff    	lea    -0x9bac(%ebx),%eax
  8000a6:	50                   	push   %eax
  8000a7:	6a 0f                	push   $0xf
  8000a9:	8d 83 b4 63 ff ff    	lea    -0x9c4c(%ebx),%eax
  8000af:	50                   	push   %eax
  8000b0:	8d 83 d0 63 ff ff    	lea    -0x9c30(%ebx),%eax
  8000b6:	50                   	push   %eax
  8000b7:	e8 94 22 03 00       	call   832350 <printf>
  8000bc:	83 c4 20             	add    $0x20,%esp
  8000bf:	b8 01 00 00 00       	mov    $0x1,%eax
  8000c4:	82 8b 83 20 00 00 00 	orb    $0x0,0x2083(%ebx)
  8000cb:	8b 55 08             	mov    0x8(%ebp),%edx
  8000ce:	89 d1                	mov    %edx,%ecx
  8000d0:	c1 e1 08             	shl    $0x8,%ecx
  8000d3:	8b 55 08             	mov    0x8(%ebp),%edx
  8000d6:	c1 e2 06             	shl    $0x6,%edx
  8000d9:	01 d1                	add    %edx,%ecx
  8000db:	8b 55 0c             	mov    0xc(%ebp),%edx
  8000de:	01 ca                	add    %ecx,%edx
  8000e0:	01 d0                	add    %edx,%eax
  8000e2:	8b 55 10             	mov    0x10(%ebp),%edx
  8000e5:	88 10                	mov    %dl,(%eax)
  8000e7:	90                   	nop
  8000e8:	8b 5d fc             	mov    -0x4(%ebp),%ebx
  8000eb:	c9                   	leave  
  8000ec:	c3                   	ret    

008000ed <prepare_buffer>:
  8000ed:	55                   	push   %ebp
  8000ee:	89 e5                	mov    %esp,%ebp
  8000f0:	53                   	push   %ebx
  8000f1:	83 ec 04             	sub    $0x4,%esp
  8000f4:	e8 85 01 00 00       	call   80027e <__x86.get_pc_thunk.ax>
  8000f9:	05 07 af 04 00       	add    $0x4af07,%eax
  8000fe:	8b 90 20 00 00 00    	mov    0x20(%eax),%edx
  800104:	83 ec 04             	sub    $0x4,%esp
  800107:	68 00 fa 00 00       	push   $0xfa00
  80010c:	6a 00                	push   $0x0
  80010e:	52                   	push   %edx
  80010f:	89 c3                	mov    %eax,%ebx
  800111:	e8 07 21 03 00       	call   83221d <memset>
  800116:	83 c4 10             	add    $0x10,%esp
  800119:	90                   	nop
  80011a:	8b 5d fc             	mov    -0x4(%ebp),%ebx
  80011d:	c9                   	leave  
  80011e:	c3                   	ret    

0080011f <display_buffer>:
  80011f:	55                   	push   %ebp
  800120:	89 e5                	mov    %esp,%ebp
  800122:	57                   	push   %edi
  800123:	56                   	push   %esi
  800124:	53                   	push   %ebx
  800125:	e8 54 01 00 00       	call   80027e <__x86.get_pc_thunk.ax>
  80012a:	05 d6 ae 04 00       	add    $0x4aed6,%eax
  80012f:	8b 80 20 00 00 00    	mov    0x20(%eax),%eax
  800135:	ba 80 3e 00 00       	mov    $0x3e80,%edx
  80013a:	bb 00 00 0a 00       	mov    $0xa0000,%ebx
  80013f:	89 d1                	mov    %edx,%ecx
  800141:	89 c6                	mov    %eax,%esi
  800143:	89 df                	mov    %ebx,%edi
  800145:	fc                   	cld    
  800146:	f3 a5                	rep movsl %ds:(%esi),%es:(%edi)
  800148:	90                   	nop
  800149:	5b                   	pop    %ebx
  80014a:	5e                   	pop    %esi
  80014b:	5f                   	pop    %edi
  80014c:	5d                   	pop    %ebp
  80014d:	c3                   	ret    

0080014e <draw_character>:
  80014e:	55                   	push   %ebp
  80014f:	89 e5                	mov    %esp,%ebp
  800151:	53                   	push   %ebx
  800152:	83 ec 24             	sub    $0x24,%esp
  800155:	e8 28 01 00 00       	call   800282 <__x86.get_pc_thunk.bx>
  80015a:	81 c3 a6 ae 04 00    	add    $0x4aea6,%ebx
  800160:	8b 45 08             	mov    0x8(%ebp),%eax
  800163:	88 45 e4             	mov    %al,-0x1c(%ebp)
  800166:	80 7d e4 00          	cmpb   $0x0,-0x1c(%ebp)
  80016a:	79 34                	jns    8001a0 <draw_character+0x52>
  80016c:	e8 df fe ff ff       	call   800050 <cli>
  800171:	83 ec 0c             	sub    $0xc,%esp
  800174:	8d 83 18 64 ff ff    	lea    -0x9be8(%ebx),%eax
  80017a:	50                   	push   %eax
  80017b:	8d 83 44 64 ff ff    	lea    -0x9bbc(%ebx),%eax
  800181:	50                   	push   %eax
  800182:	6a 18                	push   $0x18
  800184:	8d 83 29 64 ff ff    	lea    -0x9bd7(%ebx),%eax
  80018a:	50                   	push   %eax
  80018b:	8d 83 d0 63 ff ff    	lea    -0x9c30(%ebx),%eax
  800191:	50                   	push   %eax
  800192:	e8 b9 21 03 00       	call   832350 <printf>
  800197:	83 c4 20             	add    $0x20,%esp
  80019a:	b8 01 00 00 00       	mov    $0x1,%eax
  80019f:	82 0f be             	orb    $0xbe,(%edi)
  8001a2:	45                   	inc    %ebp
  8001a3:	e4 8d                	in     $0x8d,%al
  8001a5:	14 c5                	adc    $0xc5,%al
  8001a7:	00 00                	add    %al,(%eax)
  8001a9:	00 00                	add    %al,(%eax)
  8001ab:	c7 c0 40 b0 84 00    	mov    $0x84b040,%eax
  8001b1:	01 d0                	add    %edx,%eax
  8001b3:	89 45 ec             	mov    %eax,-0x14(%ebp)
  8001b6:	c7 45 f4 00 00 00 00 	movl   $0x0,-0xc(%ebp)
  8001bd:	eb 55                	jmp    800214 <draw_character+0xc6>
  8001bf:	c7 45 f0 00 00 00 00 	movl   $0x0,-0x10(%ebp)
  8001c6:	eb 42                	jmp    80020a <draw_character+0xbc>
  8001c8:	8b 55 f4             	mov    -0xc(%ebp),%edx
  8001cb:	8b 45 ec             	mov    -0x14(%ebp),%eax
  8001ce:	01 d0                	add    %edx,%eax
  8001d0:	0f b6 00             	movzbl (%eax),%eax
  8001d3:	0f be d0             	movsbl %al,%edx
  8001d6:	8b 45 f0             	mov    -0x10(%ebp),%eax
  8001d9:	89 c1                	mov    %eax,%ecx
  8001db:	d3 fa                	sar    %cl,%edx
  8001dd:	89 d0                	mov    %edx,%eax
  8001df:	83 e0 01             	and    $0x1,%eax
  8001e2:	85 c0                	test   %eax,%eax
  8001e4:	74 20                	je     800206 <draw_character+0xb8>
  8001e6:	8b 55 10             	mov    0x10(%ebp),%edx
  8001e9:	8b 45 f0             	mov    -0x10(%ebp),%eax
  8001ec:	01 c2                	add    %eax,%edx
  8001ee:	8b 4d 0c             	mov    0xc(%ebp),%ecx
  8001f1:	8b 45 f4             	mov    -0xc(%ebp),%eax
  8001f4:	01 c8                	add    %ecx,%eax
  8001f6:	83 ec 04             	sub    $0x4,%esp
  8001f9:	ff 75 14             	pushl  0x14(%ebp)
  8001fc:	52                   	push   %edx
  8001fd:	50                   	push   %eax
  8001fe:	e8 5e fe ff ff       	call   800061 <draw_pixel>
  800203:	83 c4 10             	add    $0x10,%esp
  800206:	83 45 f0 01          	addl   $0x1,-0x10(%ebp)
  80020a:	83 7d f0 07          	cmpl   $0x7,-0x10(%ebp)
  80020e:	7e b8                	jle    8001c8 <draw_character+0x7a>
  800210:	83 45 f4 01          	addl   $0x1,-0xc(%ebp)
  800214:	83 7d f4 07          	cmpl   $0x7,-0xc(%ebp)
  800218:	7e a5                	jle    8001bf <draw_character+0x71>
  80021a:	90                   	nop
  80021b:	8b 5d fc             	mov    -0x4(%ebp),%ebx
  80021e:	c9                   	leave  
  80021f:	c3                   	ret    

00800220 <draw_string>:
  800220:	55                   	push   %ebp
  800221:	89 e5                	mov    %esp,%ebp
  800223:	83 ec 08             	sub    $0x8,%esp
  800226:	e8 53 00 00 00       	call   80027e <__x86.get_pc_thunk.ax>
  80022b:	05 d5 ad 04 00       	add    $0x4add5,%eax
  800230:	eb 3f                	jmp    800271 <draw_string+0x51>
  800232:	8b 45 08             	mov    0x8(%ebp),%eax
  800235:	8d 50 01             	lea    0x1(%eax),%edx
  800238:	89 55 08             	mov    %edx,0x8(%ebp)
  80023b:	0f b6 00             	movzbl (%eax),%eax
  80023e:	0f be c0             	movsbl %al,%eax
  800241:	ff 75 14             	pushl  0x14(%ebp)
  800244:	ff 75 10             	pushl  0x10(%ebp)
  800247:	ff 75 0c             	pushl  0xc(%ebp)
  80024a:	50                   	push   %eax
  80024b:	e8 fe fe ff ff       	call   80014e <draw_character>
  800250:	83 c4 10             	add    $0x10,%esp
  800253:	8b 45 10             	mov    0x10(%ebp),%eax
  800256:	83 c0 08             	add    $0x8,%eax
  800259:	3d 3f 01 00 00       	cmp    $0x13f,%eax
  80025e:	7e 0d                	jle    80026d <draw_string+0x4d>
  800260:	83 45 0c 08          	addl   $0x8,0xc(%ebp)
  800264:	c7 45 10 00 00 00 00 	movl   $0x0,0x10(%ebp)
  80026b:	eb 04                	jmp    800271 <draw_string+0x51>
  80026d:	83 45 10 08          	addl   $0x8,0x10(%ebp)
  800271:	8b 45 08             	mov    0x8(%ebp),%eax
  800274:	0f b6 00             	movzbl (%eax),%eax
  800277:	84 c0                	test   %al,%al
  800279:	75 b7                	jne    800232 <draw_string+0x12>
  80027b:	90                   	nop
  80027c:	c9                   	leave  
  80027d:	c3                   	ret    

0080027e <__x86.get_pc_thunk.ax>:
  80027e:	8b 04 24             	mov    (%esp),%eax
  800281:	c3                   	ret    

00800282 <__x86.get_pc_thunk.bx>:
  800282:	8b 1c 24             	mov    (%esp),%ebx
  800285:	c3                   	ret    

00800286 <in_byte>:
  800286:	55                   	push   %ebp
  800287:	89 e5                	mov    %esp,%ebp
  800289:	83 ec 14             	sub    $0x14,%esp
  80028c:	e8 ed ff ff ff       	call   80027e <__x86.get_pc_thunk.ax>
  800291:	05 6f ad 04 00       	add    $0x4ad6f,%eax
  800296:	8b 45 08             	mov    0x8(%ebp),%eax
  800299:	66 89 45 ec          	mov    %ax,-0x14(%ebp)
  80029d:	0f b7 45 ec          	movzwl -0x14(%ebp),%eax
  8002a1:	89 c2                	mov    %eax,%edx
  8002a3:	ec                   	in     (%dx),%al
  8002a4:	88 45 ff             	mov    %al,-0x1(%ebp)
  8002a7:	0f b6 45 ff          	movzbl -0x1(%ebp),%eax
  8002ab:	c9                   	leave  
  8002ac:	c3                   	ret    

008002ad <out_byte>:
  8002ad:	55                   	push   %ebp
  8002ae:	89 e5                	mov    %esp,%ebp
  8002b0:	83 ec 08             	sub    $0x8,%esp
  8002b3:	e8 c6 ff ff ff       	call   80027e <__x86.get_pc_thunk.ax>
  8002b8:	05 48 ad 04 00       	add    $0x4ad48,%eax
  8002bd:	8b 55 08             	mov    0x8(%ebp),%edx
  8002c0:	8b 45 0c             	mov    0xc(%ebp),%eax
  8002c3:	66 89 55 fc          	mov    %dx,-0x4(%ebp)
  8002c7:	88 45 f8             	mov    %al,-0x8(%ebp)
  8002ca:	0f b6 45 f8          	movzbl -0x8(%ebp),%eax
  8002ce:	0f b7 55 fc          	movzwl -0x4(%ebp),%edx
  8002d2:	ee                   	out    %al,(%dx)
  8002d3:	90                   	nop
  8002d4:	c9                   	leave  
  8002d5:	c3                   	ret    

008002d6 <write_palette>:
  8002d6:	55                   	push   %ebp
  8002d7:	89 e5                	mov    %esp,%ebp
  8002d9:	83 ec 10             	sub    $0x10,%esp
  8002dc:	e8 9d ff ff ff       	call   80027e <__x86.get_pc_thunk.ax>
  8002e1:	05 1f ad 04 00       	add    $0x4ad1f,%eax
  8002e6:	8b 45 08             	mov    0x8(%ebp),%eax
  8002e9:	89 45 f8             	mov    %eax,-0x8(%ebp)
  8002ec:	6a 00                	push   $0x0
  8002ee:	68 c8 03 00 00       	push   $0x3c8
  8002f3:	e8 b5 ff ff ff       	call   8002ad <out_byte>
  8002f8:	83 c4 08             	add    $0x8,%esp
  8002fb:	c7 45 fc 00 00 00 00 	movl   $0x0,-0x4(%ebp)
  800302:	eb 78                	jmp    80037c <write_palette+0xa6>
  800304:	8b 45 fc             	mov    -0x4(%ebp),%eax
  800307:	8d 14 85 00 00 00 00 	lea    0x0(,%eax,4),%edx
  80030e:	8b 45 f8             	mov    -0x8(%ebp),%eax
  800311:	01 d0                	add    %edx,%eax
  800313:	0f b6 00             	movzbl (%eax),%eax
  800316:	c0 e8 02             	shr    $0x2,%al
  800319:	0f be c0             	movsbl %al,%eax
  80031c:	50                   	push   %eax
  80031d:	68 c9 03 00 00       	push   $0x3c9
  800322:	e8 86 ff ff ff       	call   8002ad <out_byte>
  800327:	83 c4 08             	add    $0x8,%esp
  80032a:	8b 45 fc             	mov    -0x4(%ebp),%eax
  80032d:	8d 14 85 00 00 00 00 	lea    0x0(,%eax,4),%edx
  800334:	8b 45 f8             	mov    -0x8(%ebp),%eax
  800337:	01 d0                	add    %edx,%eax
  800339:	0f b6 40 01          	movzbl 0x1(%eax),%eax
  80033d:	c0 e8 02             	shr    $0x2,%al
  800340:	0f be c0             	movsbl %al,%eax
  800343:	50                   	push   %eax
  800344:	68 c9 03 00 00       	push   $0x3c9
  800349:	e8 5f ff ff ff       	call   8002ad <out_byte>
  80034e:	83 c4 08             	add    $0x8,%esp
  800351:	8b 45 fc             	mov    -0x4(%ebp),%eax
  800354:	8d 14 85 00 00 00 00 	lea    0x0(,%eax,4),%edx
  80035b:	8b 45 f8             	mov    -0x8(%ebp),%eax
  80035e:	01 d0                	add    %edx,%eax
  800360:	0f b6 40 02          	movzbl 0x2(%eax),%eax
  800364:	c0 e8 02             	shr    $0x2,%al
  800367:	0f be c0             	movsbl %al,%eax
  80036a:	50                   	push   %eax
  80036b:	68 c9 03 00 00       	push   $0x3c9
  800370:	e8 38 ff ff ff       	call   8002ad <out_byte>
  800375:	83 c4 08             	add    $0x8,%esp
  800378:	83 45 fc 01          	addl   $0x1,-0x4(%ebp)
  80037c:	8b 45 fc             	mov    -0x4(%ebp),%eax
  80037f:	3b 45 0c             	cmp    0xc(%ebp),%eax
  800382:	7c 80                	jl     800304 <write_palette+0x2e>
  800384:	90                   	nop
  800385:	c9                   	leave  
  800386:	c3                   	ret    

00800387 <read_palette>:
  800387:	55                   	push   %ebp
  800388:	89 e5                	mov    %esp,%ebp
  80038a:	53                   	push   %ebx
  80038b:	83 ec 14             	sub    $0x14,%esp
  80038e:	e8 ef fe ff ff       	call   800282 <__x86.get_pc_thunk.bx>
  800393:	81 c3 6d ac 04 00    	add    $0x4ac6d,%ebx
  800399:	6a 00                	push   $0x0
  80039b:	68 c7 03 00 00       	push   $0x3c7
  8003a0:	e8 08 ff ff ff       	call   8002ad <out_byte>
  8003a5:	83 c4 08             	add    $0x8,%esp
  8003a8:	c7 45 f4 00 00 00 00 	movl   $0x0,-0xc(%ebp)
  8003af:	eb 52                	jmp    800403 <read_palette+0x7c>
  8003b1:	68 c9 03 00 00       	push   $0x3c9
  8003b6:	e8 cb fe ff ff       	call   800286 <in_byte>
  8003bb:	83 c4 04             	add    $0x4,%esp
  8003be:	88 45 f3             	mov    %al,-0xd(%ebp)
  8003c1:	68 c9 03 00 00       	push   $0x3c9
  8003c6:	e8 bb fe ff ff       	call   800286 <in_byte>
  8003cb:	83 c4 04             	add    $0x4,%esp
  8003ce:	88 45 f2             	mov    %al,-0xe(%ebp)
  8003d1:	68 c9 03 00 00       	push   $0x3c9
  8003d6:	e8 ab fe ff ff       	call   800286 <in_byte>
  8003db:	83 c4 04             	add    $0x4,%esp
  8003de:	88 45 f1             	mov    %al,-0xf(%ebp)
  8003e1:	0f b6 4d f1          	movzbl -0xf(%ebp),%ecx
  8003e5:	0f b6 55 f2          	movzbl -0xe(%ebp),%edx
  8003e9:	0f b6 45 f3          	movzbl -0xd(%ebp),%eax
  8003ed:	51                   	push   %ecx
  8003ee:	52                   	push   %edx
  8003ef:	50                   	push   %eax
  8003f0:	8d 83 5f 64 ff ff    	lea    -0x9ba1(%ebx),%eax
  8003f6:	50                   	push   %eax
  8003f7:	e8 54 1f 03 00       	call   832350 <printf>
  8003fc:	83 c4 10             	add    $0x10,%esp
  8003ff:	83 45 f4 01          	addl   $0x1,-0xc(%ebp)
  800403:	81 7d f4 ff 00 00 00 	cmpl   $0xff,-0xc(%ebp)
  80040a:	7e a5                	jle    8003b1 <read_palette+0x2a>
  80040c:	90                   	nop
  80040d:	8b 5d fc             	mov    -0x4(%ebp),%ebx
  800410:	c9                   	leave  
  800411:	c3                   	ret    

00800412 <out_byte>:
  800412:	55                   	push   %ebp
  800413:	89 e5                	mov    %esp,%ebp
  800415:	83 ec 08             	sub    $0x8,%esp
  800418:	e8 61 fe ff ff       	call   80027e <__x86.get_pc_thunk.ax>
  80041d:	05 e3 ab 04 00       	add    $0x4abe3,%eax
  800422:	8b 55 08             	mov    0x8(%ebp),%edx
  800425:	8b 45 0c             	mov    0xc(%ebp),%eax
  800428:	66 89 55 fc          	mov    %dx,-0x4(%ebp)
  80042c:	88 45 f8             	mov    %al,-0x8(%ebp)
  80042f:	0f b6 45 f8          	movzbl -0x8(%ebp),%eax
  800433:	0f b7 55 fc          	movzwl -0x4(%ebp),%edx
  800437:	ee                   	out    %al,(%dx)
  800438:	90                   	nop
  800439:	c9                   	leave  
  80043a:	c3                   	ret    

0080043b <cli>:
  80043b:	55                   	push   %ebp
  80043c:	89 e5                	mov    %esp,%ebp
  80043e:	e8 3b fe ff ff       	call   80027e <__x86.get_pc_thunk.ax>
  800443:	05 bd ab 04 00       	add    $0x4abbd,%eax
  800448:	fa                   	cli    
  800449:	90                   	nop
  80044a:	5d                   	pop    %ebp
  80044b:	c3                   	ret    

0080044c <init_timer>:
  80044c:	55                   	push   %ebp
  80044d:	89 e5                	mov    %esp,%ebp
  80044f:	53                   	push   %ebx
  800450:	83 ec 14             	sub    $0x14,%esp
  800453:	e8 2a fe ff ff       	call   800282 <__x86.get_pc_thunk.bx>
  800458:	81 c3 a8 ab 04 00    	add    $0x4aba8,%ebx
  80045e:	c7 45 f4 9b 2e 00 00 	movl   $0x2e9b,-0xc(%ebp)
  800465:	81 7d f4 ff ff 00 00 	cmpl   $0xffff,-0xc(%ebp)
  80046c:	7e 34                	jle    8004a2 <init_timer+0x56>
  80046e:	e8 c8 ff ff ff       	call   80043b <cli>
  800473:	83 ec 0c             	sub    $0xc,%esp
  800476:	8d 83 78 64 ff ff    	lea    -0x9b88(%ebx),%eax
  80047c:	50                   	push   %eax
  80047d:	8d 83 ec 64 ff ff    	lea    -0x9b14(%ebx),%eax
  800483:	50                   	push   %eax
  800484:	6a 08                	push   $0x8
  800486:	8d 83 88 64 ff ff    	lea    -0x9b78(%ebx),%eax
  80048c:	50                   	push   %eax
  80048d:	8d 83 a4 64 ff ff    	lea    -0x9b5c(%ebx),%eax
  800493:	50                   	push   %eax
  800494:	e8 b7 1e 03 00       	call   832350 <printf>
  800499:	83 c4 20             	add    $0x20,%esp
  80049c:	b8 01 00 00 00       	mov    $0x1,%eax
  8004a1:	82 83 ec 08 6a 34 6a 	addb   $0x6a,0x346a08ec(%ebx)
  8004a8:	43                   	inc    %ebx
  8004a9:	e8 64 ff ff ff       	call   800412 <out_byte>
  8004ae:	83 c4 10             	add    $0x10,%esp
  8004b1:	8b 45 f4             	mov    -0xc(%ebp),%eax
  8004b4:	99                   	cltd   
  8004b5:	c1 ea 18             	shr    $0x18,%edx
  8004b8:	01 d0                	add    %edx,%eax
  8004ba:	0f b6 c0             	movzbl %al,%eax
  8004bd:	29 d0                	sub    %edx,%eax
  8004bf:	0f be c0             	movsbl %al,%eax
  8004c2:	83 ec 08             	sub    $0x8,%esp
  8004c5:	50                   	push   %eax
  8004c6:	6a 40                	push   $0x40
  8004c8:	e8 45 ff ff ff       	call   800412 <out_byte>
  8004cd:	83 c4 10             	add    $0x10,%esp
  8004d0:	8b 45 f4             	mov    -0xc(%ebp),%eax
  8004d3:	8d 90 ff 00 00 00    	lea    0xff(%eax),%edx
  8004d9:	85 c0                	test   %eax,%eax
  8004db:	0f 48 c2             	cmovs  %edx,%eax
  8004de:	c1 f8 08             	sar    $0x8,%eax
  8004e1:	0f be c0             	movsbl %al,%eax
  8004e4:	83 ec 08             	sub    $0x8,%esp
  8004e7:	50                   	push   %eax
  8004e8:	6a 40                	push   $0x40
  8004ea:	e8 23 ff ff ff       	call   800412 <out_byte>
  8004ef:	83 c4 10             	add    $0x10,%esp
  8004f2:	90                   	nop
  8004f3:	8b 5d fc             	mov    -0x4(%ebp),%ebx
  8004f6:	c9                   	leave  
  8004f7:	c3                   	ret    

008004f8 <cli>:
  8004f8:	55                   	push   %ebp
  8004f9:	89 e5                	mov    %esp,%ebp
  8004fb:	e8 7e fd ff ff       	call   80027e <__x86.get_pc_thunk.ax>
  800500:	05 00 ab 04 00       	add    $0x4ab00,%eax
  800505:	fa                   	cli    
  800506:	90                   	nop
  800507:	5d                   	pop    %ebp
  800508:	c3                   	ret    

00800509 <add_irq_handle>:
  800509:	55                   	push   %ebp
  80050a:	89 e5                	mov    %esp,%ebp
  80050c:	53                   	push   %ebx
  80050d:	83 ec 04             	sub    $0x4,%esp
  800510:	e8 69 fd ff ff       	call   80027e <__x86.get_pc_thunk.ax>
  800515:	05 eb aa 04 00       	add    $0x4aaeb,%eax
  80051a:	83 ec 04             	sub    $0x4,%esp
  80051d:	ff 75 0c             	pushl  0xc(%ebp)
  800520:	ff 75 08             	pushl  0x8(%ebp)
  800523:	6a 00                	push   $0x0
  800525:	89 c3                	mov    %eax,%ebx
  800527:	e8 a6 00 00 00       	call   8005d2 <syscall>
  80052c:	83 c4 10             	add    $0x10,%esp
  80052f:	90                   	nop
  800530:	8b 5d fc             	mov    -0x4(%ebp),%ebx
  800533:	c9                   	leave  
  800534:	c3                   	ret    

00800535 <game_init>:
  800535:	55                   	push   %ebp
  800536:	89 e5                	mov    %esp,%ebp
  800538:	53                   	push   %ebx
  800539:	83 ec 04             	sub    $0x4,%esp
  80053c:	e8 41 fd ff ff       	call   800282 <__x86.get_pc_thunk.bx>
  800541:	81 c3 bf aa 04 00    	add    $0x4aabf,%ebx
  800547:	e8 00 ff ff ff       	call   80044c <init_timer>
  80054c:	83 ec 08             	sub    $0x8,%esp
  80054f:	c7 c0 3d 50 81 00    	mov    $0x81503d,%eax
  800555:	50                   	push   %eax
  800556:	6a 00                	push   $0x0
  800558:	e8 ac ff ff ff       	call   800509 <add_irq_handle>
  80055d:	83 c4 10             	add    $0x10,%esp
  800560:	83 ec 08             	sub    $0x8,%esp
  800563:	c7 c0 ca 42 81 00    	mov    $0x8142ca,%eax
  800569:	50                   	push   %eax
  80056a:	6a 01                	push   $0x1
  80056c:	e8 98 ff ff ff       	call   800509 <add_irq_handle>
  800571:	83 c4 10             	add    $0x10,%esp
  800574:	8d 83 80 65 ff ff    	lea    -0x9a80(%ebx),%eax
  80057a:	50                   	push   %eax
  80057b:	6a 12                	push   $0x12
  80057d:	8d 83 f8 64 ff ff    	lea    -0x9b08(%ebx),%eax
  800583:	50                   	push   %eax
  800584:	8d 83 0c 65 ff ff    	lea    -0x9af4(%ebx),%eax
  80058a:	50                   	push   %eax
  80058b:	e8 c0 1d 03 00       	call   832350 <printf>
  800590:	83 c4 10             	add    $0x10,%esp
  800593:	e8 af 9d 00 00       	call   80a347 <main_loop>
  800598:	e8 5b ff ff ff       	call   8004f8 <cli>
  80059d:	83 ec 0c             	sub    $0xc,%esp
  8005a0:	8d 83 36 65 ff ff    	lea    -0x9aca(%ebx),%eax
  8005a6:	50                   	push   %eax
  8005a7:	8d 83 80 65 ff ff    	lea    -0x9a80(%ebx),%eax
  8005ad:	50                   	push   %eax
  8005ae:	6a 16                	push   $0x16
  8005b0:	8d 83 f8 64 ff ff    	lea    -0x9b08(%ebx),%eax
  8005b6:	50                   	push   %eax
  8005b7:	8d 83 38 65 ff ff    	lea    -0x9ac8(%ebx),%eax
  8005bd:	50                   	push   %eax
  8005be:	e8 8d 1d 03 00       	call   832350 <printf>
  8005c3:	83 c4 20             	add    $0x20,%esp
  8005c6:	b8 01 00 00 00       	mov    $0x1,%eax
  8005cb:	82 90 8b 5d fc c9 c3 	adcb   $0xc3,-0x3603a275(%eax)

008005d2 <syscall>:
  8005d2:	55                   	push   %ebp
  8005d3:	89 e5                	mov    %esp,%ebp
  8005d5:	53                   	push   %ebx
  8005d6:	83 ec 10             	sub    $0x10,%esp
  8005d9:	e8 a0 fc ff ff       	call   80027e <__x86.get_pc_thunk.ax>
  8005de:	05 22 aa 04 00       	add    $0x4aa22,%eax
  8005e3:	8d 45 08             	lea    0x8(%ebp),%eax
  8005e6:	89 45 f8             	mov    %eax,-0x8(%ebp)
  8005e9:	8b 45 f8             	mov    -0x8(%ebp),%eax
  8005ec:	8b 00                	mov    (%eax),%eax
  8005ee:	8b 55 f8             	mov    -0x8(%ebp),%edx
  8005f1:	83 c2 04             	add    $0x4,%edx
  8005f4:	8b 1a                	mov    (%edx),%ebx
  8005f6:	8b 55 f8             	mov    -0x8(%ebp),%edx
  8005f9:	83 c2 08             	add    $0x8,%edx
  8005fc:	8b 0a                	mov    (%edx),%ecx
  8005fe:	8b 55 f8             	mov    -0x8(%ebp),%edx
  800601:	83 c2 0c             	add    $0xc,%edx
  800604:	8b 12                	mov    (%edx),%edx
  800606:	cd 80                	int    $0x80
  800608:	89 45 f4             	mov    %eax,-0xc(%ebp)
  80060b:	8b 45 f4             	mov    -0xc(%ebp),%eax
  80060e:	83 c4 10             	add    $0x10,%esp
  800611:	5b                   	pop    %ebx
  800612:	5d                   	pop    %ebp
  800613:	c3                   	ret    

00800614 <_exit>:
  800614:	55                   	push   %ebp
  800615:	89 e5                	mov    %esp,%ebp
  800617:	53                   	push   %ebx
  800618:	83 ec 04             	sub    $0x4,%esp
  80061b:	e8 5e fc ff ff       	call   80027e <__x86.get_pc_thunk.ax>
  800620:	05 e0 a9 04 00       	add    $0x4a9e0,%eax
  800625:	8d 90 d0 65 ff ff    	lea    -0x9a30(%eax),%edx
  80062b:	52                   	push   %edx
  80062c:	6a 0e                	push   $0xe
  80062e:	8d 90 8c 65 ff ff    	lea    -0x9a74(%eax),%edx
  800634:	52                   	push   %edx
  800635:	8d 90 a8 65 ff ff    	lea    -0x9a58(%eax),%edx
  80063b:	52                   	push   %edx
  80063c:	89 c3                	mov    %eax,%ebx
  80063e:	e8 0d 1d 03 00       	call   832350 <printf>
  800643:	83 c4 10             	add    $0x10,%esp
  800646:	83 7d 08 00          	cmpl   $0x0,0x8(%ebp)
  80064a:	74 06                	je     800652 <_exit+0x3e>
  80064c:	b8 01 00 00 00       	mov    $0x1,%eax
  800651:	82 90 8b 5d fc c9 c3 	adcb   $0xc3,-0x3603a275(%eax)

00800658 <open>:
  800658:	55                   	push   %ebp
  800659:	89 e5                	mov    %esp,%ebp
  80065b:	e8 1e fc ff ff       	call   80027e <__x86.get_pc_thunk.ax>
  800660:	05 a0 a9 04 00       	add    $0x4a9a0,%eax
  800665:	ff 75 0c             	pushl  0xc(%ebp)
  800668:	ff 75 08             	pushl  0x8(%ebp)
  80066b:	6a 05                	push   $0x5
  80066d:	e8 60 ff ff ff       	call   8005d2 <syscall>
  800672:	83 c4 0c             	add    $0xc,%esp
  800675:	c9                   	leave  
  800676:	c3                   	ret    

00800677 <read>:
  800677:	55                   	push   %ebp
  800678:	89 e5                	mov    %esp,%ebp
  80067a:	e8 ff fb ff ff       	call   80027e <__x86.get_pc_thunk.ax>
  80067f:	05 81 a9 04 00       	add    $0x4a981,%eax
  800684:	ff 75 10             	pushl  0x10(%ebp)
  800687:	ff 75 0c             	pushl  0xc(%ebp)
  80068a:	ff 75 08             	pushl  0x8(%ebp)
  80068d:	6a 03                	push   $0x3
  80068f:	e8 3e ff ff ff       	call   8005d2 <syscall>
  800694:	83 c4 10             	add    $0x10,%esp
  800697:	c9                   	leave  
  800698:	c3                   	ret    

00800699 <write>:
  800699:	55                   	push   %ebp
  80069a:	89 e5                	mov    %esp,%ebp
  80069c:	e8 dd fb ff ff       	call   80027e <__x86.get_pc_thunk.ax>
  8006a1:	05 5f a9 04 00       	add    $0x4a95f,%eax
  8006a6:	ff 75 10             	pushl  0x10(%ebp)
  8006a9:	ff 75 0c             	pushl  0xc(%ebp)
  8006ac:	ff 75 08             	pushl  0x8(%ebp)
  8006af:	6a 04                	push   $0x4
  8006b1:	e8 1c ff ff ff       	call   8005d2 <syscall>
  8006b6:	83 c4 10             	add    $0x10,%esp
  8006b9:	c9                   	leave  
  8006ba:	c3                   	ret    

008006bb <lseek>:
  8006bb:	55                   	push   %ebp
  8006bc:	89 e5                	mov    %esp,%ebp
  8006be:	e8 bb fb ff ff       	call   80027e <__x86.get_pc_thunk.ax>
  8006c3:	05 3d a9 04 00       	add    $0x4a93d,%eax
  8006c8:	ff 75 10             	pushl  0x10(%ebp)
  8006cb:	ff 75 0c             	pushl  0xc(%ebp)
  8006ce:	ff 75 08             	pushl  0x8(%ebp)
  8006d1:	6a 13                	push   $0x13
  8006d3:	e8 fa fe ff ff       	call   8005d2 <syscall>
  8006d8:	83 c4 10             	add    $0x10,%esp
  8006db:	c9                   	leave  
  8006dc:	c3                   	ret    

008006dd <sbrk>:
  8006dd:	55                   	push   %ebp
  8006de:	89 e5                	mov    %esp,%ebp
  8006e0:	53                   	push   %ebx
  8006e1:	83 ec 10             	sub    $0x10,%esp
  8006e4:	e8 99 fb ff ff       	call   800282 <__x86.get_pc_thunk.bx>
  8006e9:	81 c3 17 a9 04 00    	add    $0x4a917,%ebx
  8006ef:	8b 83 a0 0f 01 00    	mov    0x10fa0(%ebx),%eax
  8006f5:	85 c0                	test   %eax,%eax
  8006f7:	75 0c                	jne    800705 <sbrk+0x28>
  8006f9:	c7 c0 fc 39 86 00    	mov    $0x8639fc,%eax
  8006ff:	89 83 a0 0f 01 00    	mov    %eax,0x10fa0(%ebx)
  800705:	8b 93 a0 0f 01 00    	mov    0x10fa0(%ebx),%edx
  80070b:	8b 45 08             	mov    0x8(%ebp),%eax
  80070e:	01 d0                	add    %edx,%eax
  800710:	50                   	push   %eax
  800711:	6a 2d                	push   $0x2d
  800713:	e8 ba fe ff ff       	call   8005d2 <syscall>
  800718:	83 c4 08             	add    $0x8,%esp
  80071b:	85 c0                	test   %eax,%eax
  80071d:	74 06                	je     800725 <sbrk+0x48>
  80071f:	b8 01 00 00 00       	mov    $0x1,%eax
  800724:	82 8b 83 a0 0f 01 00 	orb    $0x0,0x10fa083(%ebx)
  80072b:	89 45 f8             	mov    %eax,-0x8(%ebp)
  80072e:	8b 93 a0 0f 01 00    	mov    0x10fa0(%ebx),%edx
  800734:	8b 45 08             	mov    0x8(%ebp),%eax
  800737:	01 d0                	add    %edx,%eax
  800739:	89 83 a0 0f 01 00    	mov    %eax,0x10fa0(%ebx)
  80073f:	8b 45 f8             	mov    -0x8(%ebp),%eax
  800742:	8b 5d fc             	mov    -0x4(%ebp),%ebx
  800745:	c9                   	leave  
  800746:	c3                   	ret    

00800747 <close>:
  800747:	55                   	push   %ebp
  800748:	89 e5                	mov    %esp,%ebp
  80074a:	e8 2f fb ff ff       	call   80027e <__x86.get_pc_thunk.ax>
  80074f:	05 b1 a8 04 00       	add    $0x4a8b1,%eax
  800754:	ff 75 08             	pushl  0x8(%ebp)
  800757:	6a 06                	push   $0x6
  800759:	e8 74 fe ff ff       	call   8005d2 <syscall>
  80075e:	83 c4 08             	add    $0x8,%esp
  800761:	c9                   	leave  
  800762:	c3                   	ret    

00800763 <fstat>:
  800763:	55                   	push   %ebp
  800764:	89 e5                	mov    %esp,%ebp
  800766:	e8 13 fb ff ff       	call   80027e <__x86.get_pc_thunk.ax>
  80076b:	05 95 a8 04 00       	add    $0x4a895,%eax
  800770:	8b 45 0c             	mov    0xc(%ebp),%eax
  800773:	c7 40 04 00 20 00 00 	movl   $0x2000,0x4(%eax)
  80077a:	b8 00 00 00 00       	mov    $0x0,%eax
  80077f:	5d                   	pop    %ebp
  800780:	c3                   	ret    

00800781 <isatty>:
  800781:	55                   	push   %ebp
  800782:	89 e5                	mov    %esp,%ebp
  800784:	e8 f5 fa ff ff       	call   80027e <__x86.get_pc_thunk.ax>
  800789:	05 77 a8 04 00       	add    $0x4a877,%eax
  80078e:	b8 00 00 00 00       	mov    $0x0,%eax
  800793:	5d                   	pop    %ebp
  800794:	c3                   	ret    

00800795 <cli>:
  800795:	55                   	push   %ebp
  800796:	89 e5                	mov    %esp,%ebp
  800798:	e8 e1 fa ff ff       	call   80027e <__x86.get_pc_thunk.ax>
  80079d:	05 63 a8 04 00       	add    $0x4a863,%eax
  8007a2:	fa                   	cli    
  8007a3:	90                   	nop
  8007a4:	5d                   	pop    %ebp
  8007a5:	c3                   	ret    

008007a6 <PAL_FreeEventObjectSprites>:
  8007a6:	55                   	push   %ebp
  8007a7:	89 e5                	mov    %esp,%ebp
  8007a9:	53                   	push   %ebx
  8007aa:	83 ec 14             	sub    $0x14,%esp
  8007ad:	e8 d0 fa ff ff       	call   800282 <__x86.get_pc_thunk.bx>
  8007b2:	81 c3 4e a8 04 00    	add    $0x4a84e,%ebx
  8007b8:	8b 83 a4 0f 01 00    	mov    0x10fa4(%ebx),%eax
  8007be:	8b 40 08             	mov    0x8(%eax),%eax
  8007c1:	85 c0                	test   %eax,%eax
  8007c3:	74 69                	je     80082e <PAL_FreeEventObjectSprites+0x88>
  8007c5:	c7 45 f4 00 00 00 00 	movl   $0x0,-0xc(%ebp)
  8007cc:	eb 23                	jmp    8007f1 <PAL_FreeEventObjectSprites+0x4b>
  8007ce:	8b 83 a4 0f 01 00    	mov    0x10fa4(%ebx),%eax
  8007d4:	8b 40 08             	mov    0x8(%eax),%eax
  8007d7:	8b 55 f4             	mov    -0xc(%ebp),%edx
  8007da:	c1 e2 02             	shl    $0x2,%edx
  8007dd:	01 d0                	add    %edx,%eax
  8007df:	8b 00                	mov    (%eax),%eax
  8007e1:	83 ec 0c             	sub    $0xc,%esp
  8007e4:	50                   	push   %eax
  8007e5:	e8 66 11 03 00       	call   831950 <free>
  8007ea:	83 c4 10             	add    $0x10,%esp
  8007ed:	83 45 f4 01          	addl   $0x1,-0xc(%ebp)
  8007f1:	8b 83 a4 0f 01 00    	mov    0x10fa4(%ebx),%eax
  8007f7:	8b 40 0c             	mov    0xc(%eax),%eax
  8007fa:	3b 45 f4             	cmp    -0xc(%ebp),%eax
  8007fd:	7f cf                	jg     8007ce <PAL_FreeEventObjectSprites+0x28>
  8007ff:	8b 83 a4 0f 01 00    	mov    0x10fa4(%ebx),%eax
  800805:	8b 40 08             	mov    0x8(%eax),%eax
  800808:	83 ec 0c             	sub    $0xc,%esp
  80080b:	50                   	push   %eax
  80080c:	e8 3f 11 03 00       	call   831950 <free>
  800811:	83 c4 10             	add    $0x10,%esp
  800814:	8b 83 a4 0f 01 00    	mov    0x10fa4(%ebx),%eax
  80081a:	c7 40 08 00 00 00 00 	movl   $0x0,0x8(%eax)
  800821:	8b 83 a4 0f 01 00    	mov    0x10fa4(%ebx),%eax
  800827:	c7 40 0c 00 00 00 00 	movl   $0x0,0xc(%eax)
  80082e:	90                   	nop
  80082f:	8b 5d fc             	mov    -0x4(%ebp),%ebx
  800832:	c9                   	leave  
  800833:	c3                   	ret    

00800834 <PAL_FreePlayerSprites>:
  800834:	55                   	push   %ebp
  800835:	89 e5                	mov    %esp,%ebp
  800837:	53                   	push   %ebx
  800838:	83 ec 14             	sub    $0x14,%esp
  80083b:	e8 42 fa ff ff       	call   800282 <__x86.get_pc_thunk.bx>
  800840:	81 c3 c0 a7 04 00    	add    $0x4a7c0,%ebx
  800846:	c7 45 f4 00 00 00 00 	movl   $0x0,-0xc(%ebp)
  80084d:	eb 32                	jmp    800881 <PAL_FreePlayerSprites+0x4d>
  80084f:	8b 83 a4 0f 01 00    	mov    0x10fa4(%ebx),%eax
  800855:	8b 55 f4             	mov    -0xc(%ebp),%edx
  800858:	83 c2 04             	add    $0x4,%edx
  80085b:	8b 04 90             	mov    (%eax,%edx,4),%eax
  80085e:	83 ec 0c             	sub    $0xc,%esp
  800861:	50                   	push   %eax
  800862:	e8 e9 10 03 00       	call   831950 <free>
  800867:	83 c4 10             	add    $0x10,%esp
  80086a:	8b 83 a4 0f 01 00    	mov    0x10fa4(%ebx),%eax
  800870:	8b 55 f4             	mov    -0xc(%ebp),%edx
  800873:	83 c2 04             	add    $0x4,%edx
  800876:	c7 04 90 00 00 00 00 	movl   $0x0,(%eax,%edx,4)
  80087d:	83 45 f4 01          	addl   $0x1,-0xc(%ebp)
  800881:	83 7d f4 03          	cmpl   $0x3,-0xc(%ebp)
  800885:	7e c8                	jle    80084f <PAL_FreePlayerSprites+0x1b>
  800887:	90                   	nop
  800888:	8b 5d fc             	mov    -0x4(%ebp),%ebx
  80088b:	c9                   	leave  
  80088c:	c3                   	ret    

0080088d <PAL_InitResources>:
  80088d:	55                   	push   %ebp
  80088e:	89 e5                	mov    %esp,%ebp
  800890:	53                   	push   %ebx
  800891:	83 ec 04             	sub    $0x4,%esp
  800894:	e8 e9 f9 ff ff       	call   800282 <__x86.get_pc_thunk.bx>
  800899:	81 c3 67 a7 04 00    	add    $0x4a767,%ebx
  80089f:	83 ec 08             	sub    $0x8,%esp
  8008a2:	6a 20                	push   $0x20
  8008a4:	6a 01                	push   $0x1
  8008a6:	e8 ca 9e 00 00       	call   80a775 <UTIL_calloc>
  8008ab:	83 c4 10             	add    $0x10,%esp
  8008ae:	89 83 a4 0f 01 00    	mov    %eax,0x10fa4(%ebx)
  8008b4:	90                   	nop
  8008b5:	8b 5d fc             	mov    -0x4(%ebp),%ebx
  8008b8:	c9                   	leave  
  8008b9:	c3                   	ret    

008008ba <PAL_FreeResources>:
  8008ba:	55                   	push   %ebp
  8008bb:	89 e5                	mov    %esp,%ebp
  8008bd:	53                   	push   %ebx
  8008be:	83 ec 04             	sub    $0x4,%esp
  8008c1:	e8 bc f9 ff ff       	call   800282 <__x86.get_pc_thunk.bx>
  8008c6:	81 c3 3a a7 04 00    	add    $0x4a73a,%ebx
  8008cc:	8b 83 a4 0f 01 00    	mov    0x10fa4(%ebx),%eax
  8008d2:	85 c0                	test   %eax,%eax
  8008d4:	74 31                	je     800907 <PAL_FreeResources+0x4d>
  8008d6:	e8 59 ff ff ff       	call   800834 <PAL_FreePlayerSprites>
  8008db:	e8 c6 fe ff ff       	call   8007a6 <PAL_FreeEventObjectSprites>
  8008e0:	8b 83 a4 0f 01 00    	mov    0x10fa4(%ebx),%eax
  8008e6:	8b 40 04             	mov    0x4(%eax),%eax
  8008e9:	83 ec 0c             	sub    $0xc,%esp
  8008ec:	50                   	push   %eax
  8008ed:	e8 a3 88 00 00       	call   809195 <PAL_FreeMap>
  8008f2:	83 c4 10             	add    $0x10,%esp
  8008f5:	8b 83 a4 0f 01 00    	mov    0x10fa4(%ebx),%eax
  8008fb:	83 ec 0c             	sub    $0xc,%esp
  8008fe:	50                   	push   %eax
  8008ff:	e8 4c 10 03 00       	call   831950 <free>
  800904:	83 c4 10             	add    $0x10,%esp
  800907:	c7 83 a4 0f 01 00 00 	movl   $0x0,0x10fa4(%ebx)
  80090e:	00 00 00 
  800911:	90                   	nop
  800912:	8b 5d fc             	mov    -0x4(%ebp),%ebx
  800915:	c9                   	leave  
  800916:	c3                   	ret    

00800917 <PAL_SetLoadFlags>:
  800917:	55                   	push   %ebp
  800918:	89 e5                	mov    %esp,%ebp
  80091a:	83 ec 04             	sub    $0x4,%esp
  80091d:	e8 5c f9 ff ff       	call   80027e <__x86.get_pc_thunk.ax>
  800922:	05 de a6 04 00       	add    $0x4a6de,%eax
  800927:	8b 55 08             	mov    0x8(%ebp),%edx
  80092a:	88 55 fc             	mov    %dl,-0x4(%ebp)
  80092d:	8b 90 a4 0f 01 00    	mov    0x10fa4(%eax),%edx
  800933:	85 d2                	test   %edx,%edx
  800935:	74 16                	je     80094d <PAL_SetLoadFlags+0x36>
  800937:	8b 90 a4 0f 01 00    	mov    0x10fa4(%eax),%edx
  80093d:	8b 80 a4 0f 01 00    	mov    0x10fa4(%eax),%eax
  800943:	0f b6 00             	movzbl (%eax),%eax
  800946:	0a 45 fc             	or     -0x4(%ebp),%al
  800949:	88 02                	mov    %al,(%edx)
  80094b:	eb 01                	jmp    80094e <PAL_SetLoadFlags+0x37>
  80094d:	90                   	nop
  80094e:	c9                   	leave  
  80094f:	c3                   	ret    

00800950 <PAL_LoadResources>:
  800950:	55                   	push   %ebp
  800951:	89 e5                	mov    %esp,%ebp
  800953:	57                   	push   %edi
  800954:	56                   	push   %esi
  800955:	53                   	push   %ebx
  800956:	83 ec 2c             	sub    $0x2c,%esp
  800959:	e8 24 f9 ff ff       	call   800282 <__x86.get_pc_thunk.bx>
  80095e:	81 c3 a2 a6 04 00    	add    $0x4a6a2,%ebx
  800964:	8b 83 a4 0f 01 00    	mov    0x10fa4(%ebx),%eax
  80096a:	85 c0                	test   %eax,%eax
  80096c:	0f 84 e7 04 00 00    	je     800e59 <PAL_LoadResources+0x509>
  800972:	8b 83 a4 0f 01 00    	mov    0x10fa4(%ebx),%eax
  800978:	0f b6 00             	movzbl (%eax),%eax
  80097b:	84 c0                	test   %al,%al
  80097d:	0f 84 d6 04 00 00    	je     800e59 <PAL_LoadResources+0x509>
  800983:	8b 83 a4 0f 01 00    	mov    0x10fa4(%ebx),%eax
  800989:	0f b6 00             	movzbl (%eax),%eax
  80098c:	0f b6 c0             	movzbl %al,%eax
  80098f:	83 e0 01             	and    $0x1,%eax
  800992:	85 c0                	test   %eax,%eax
  800994:	0f 84 e2 02 00 00    	je     800c7c <PAL_LoadResources+0x32c>
  80099a:	83 ec 0c             	sub    $0xc,%esp
  80099d:	8d 83 d8 65 ff ff    	lea    -0x9a28(%ebx),%eax
  8009a3:	50                   	push   %eax
  8009a4:	e8 38 9e 00 00       	call   80a7e1 <UTIL_OpenRequiredFile>
  8009a9:	83 c4 10             	add    $0x10,%esp
  8009ac:	89 45 dc             	mov    %eax,-0x24(%ebp)
  8009af:	83 ec 0c             	sub    $0xc,%esp
  8009b2:	8d 83 e0 65 ff ff    	lea    -0x9a20(%ebx),%eax
  8009b8:	50                   	push   %eax
  8009b9:	e8 23 9e 00 00       	call   80a7e1 <UTIL_OpenRequiredFile>
  8009be:	83 c4 10             	add    $0x10,%esp
  8009c1:	89 45 d8             	mov    %eax,-0x28(%ebp)
  8009c4:	c7 c0 a8 bf 85 00    	mov    $0x85bfa8,%eax
  8009ca:	8b 00                	mov    (%eax),%eax
  8009cc:	8b 80 d0 2a 00 00    	mov    0x2ad0(%eax),%eax
  8009d2:	85 c0                	test   %eax,%eax
  8009d4:	74 22                	je     8009f8 <PAL_LoadResources+0xa8>
  8009d6:	c7 c0 a8 bf 85 00    	mov    $0x85bfa8,%eax
  8009dc:	8b 00                	mov    (%eax),%eax
  8009de:	66 c7 80 5c 44 00 00 	movw   $0x0,0x445c(%eax)
  8009e5:	00 00 
  8009e7:	c7 c0 a8 bf 85 00    	mov    $0x85bfa8,%eax
  8009ed:	8b 00                	mov    (%eax),%eax
  8009ef:	66 c7 80 5e 44 00 00 	movw   $0x0,0x445e(%eax)
  8009f6:	00 00 
  8009f8:	e8 a9 fd ff ff       	call   8007a6 <PAL_FreeEventObjectSprites>
  8009fd:	8b 83 a4 0f 01 00    	mov    0x10fa4(%ebx),%eax
  800a03:	8b 40 04             	mov    0x4(%eax),%eax
  800a06:	83 ec 0c             	sub    $0xc,%esp
  800a09:	50                   	push   %eax
  800a0a:	e8 86 87 00 00       	call   809195 <PAL_FreeMap>
  800a0f:	83 c4 10             	add    $0x10,%esp
  800a12:	c7 c0 a8 bf 85 00    	mov    $0x85bfa8,%eax
  800a18:	8b 00                	mov    (%eax),%eax
  800a1a:	0f b7 80 4a 44 00 00 	movzwl 0x444a(%eax),%eax
  800a21:	0f b7 c0             	movzwl %ax,%eax
  800a24:	83 e8 01             	sub    $0x1,%eax
  800a27:	89 45 e4             	mov    %eax,-0x1c(%ebp)
  800a2a:	8b b3 a4 0f 01 00    	mov    0x10fa4(%ebx),%esi
  800a30:	c7 c0 a8 bf 85 00    	mov    $0x85bfa8,%eax
  800a36:	8b 00                	mov    (%eax),%eax
  800a38:	8b 55 e4             	mov    -0x1c(%ebp),%edx
  800a3b:	83 c2 04             	add    $0x4,%edx
  800a3e:	0f b7 44 d0 08       	movzwl 0x8(%eax,%edx,8),%eax
  800a43:	0f b7 c0             	movzwl %ax,%eax
  800a46:	83 ec 04             	sub    $0x4,%esp
  800a49:	ff 75 d8             	pushl  -0x28(%ebp)
  800a4c:	ff 75 dc             	pushl  -0x24(%ebp)
  800a4f:	50                   	push   %eax
  800a50:	e8 df 84 00 00       	call   808f34 <PAL_LoadMap>
  800a55:	83 c4 10             	add    $0x10,%esp
  800a58:	89 46 04             	mov    %eax,0x4(%esi)
  800a5b:	8b 83 a4 0f 01 00    	mov    0x10fa4(%ebx),%eax
  800a61:	8b 40 04             	mov    0x4(%eax),%eax
  800a64:	85 c0                	test   %eax,%eax
  800a66:	75 58                	jne    800ac0 <PAL_LoadResources+0x170>
  800a68:	83 ec 0c             	sub    $0xc,%esp
  800a6b:	ff 75 dc             	pushl  -0x24(%ebp)
  800a6e:	e8 2d f6 02 00       	call   8300a0 <fclose>
  800a73:	83 c4 10             	add    $0x10,%esp
  800a76:	83 ec 0c             	sub    $0xc,%esp
  800a79:	ff 75 d8             	pushl  -0x28(%ebp)
  800a7c:	e8 1f f6 02 00       	call   8300a0 <fclose>
  800a81:	83 c4 10             	add    $0x10,%esp
  800a84:	c7 c0 a8 bf 85 00    	mov    $0x85bfa8,%eax
  800a8a:	8b 00                	mov    (%eax),%eax
  800a8c:	0f b7 80 4a 44 00 00 	movzwl 0x444a(%eax),%eax
  800a93:	0f b7 d0             	movzwl %ax,%edx
  800a96:	c7 c0 a8 bf 85 00    	mov    $0x85bfa8,%eax
  800a9c:	8b 00                	mov    (%eax),%eax
  800a9e:	8b 4d e4             	mov    -0x1c(%ebp),%ecx
  800aa1:	83 c1 04             	add    $0x4,%ecx
  800aa4:	0f b7 44 c8 08       	movzwl 0x8(%eax,%ecx,8),%eax
  800aa9:	0f b7 c0             	movzwl %ax,%eax
  800aac:	83 ec 04             	sub    $0x4,%esp
  800aaf:	52                   	push   %edx
  800ab0:	50                   	push   %eax
  800ab1:	8d 83 e8 65 ff ff    	lea    -0x9a18(%ebx),%eax
  800ab7:	50                   	push   %eax
  800ab8:	e8 b6 9b 00 00       	call   80a673 <TerminateOnError>
  800abd:	83 c4 10             	add    $0x10,%esp
  800ac0:	c7 c0 a8 bf 85 00    	mov    $0x85bfa8,%eax
  800ac6:	8b 00                	mov    (%eax),%eax
  800ac8:	8b 55 e4             	mov    -0x1c(%ebp),%edx
  800acb:	83 c2 04             	add    $0x4,%edx
  800ace:	0f b7 44 d0 0e       	movzwl 0xe(%eax,%edx,8),%eax
  800ad3:	0f b7 c0             	movzwl %ax,%eax
  800ad6:	89 45 e0             	mov    %eax,-0x20(%ebp)
  800ad9:	8b 83 a4 0f 01 00    	mov    0x10fa4(%ebx),%eax
  800adf:	c7 c2 a8 bf 85 00    	mov    $0x85bfa8,%edx
  800ae5:	8b 12                	mov    (%edx),%edx
  800ae7:	8b 4d e4             	mov    -0x1c(%ebp),%ecx
  800aea:	83 c1 01             	add    $0x1,%ecx
  800aed:	83 c1 04             	add    $0x4,%ecx
  800af0:	0f b7 54 ca 0e       	movzwl 0xe(%edx,%ecx,8),%edx
  800af5:	0f b7 d2             	movzwl %dx,%edx
  800af8:	89 50 0c             	mov    %edx,0xc(%eax)
  800afb:	8b 83 a4 0f 01 00    	mov    0x10fa4(%ebx),%eax
  800b01:	8b 93 a4 0f 01 00    	mov    0x10fa4(%ebx),%edx
  800b07:	8b 52 0c             	mov    0xc(%edx),%edx
  800b0a:	2b 55 e0             	sub    -0x20(%ebp),%edx
  800b0d:	89 50 0c             	mov    %edx,0xc(%eax)
  800b10:	8b 83 a4 0f 01 00    	mov    0x10fa4(%ebx),%eax
  800b16:	8b 40 0c             	mov    0xc(%eax),%eax
  800b19:	85 c0                	test   %eax,%eax
  800b1b:	7e 20                	jle    800b3d <PAL_LoadResources+0x1ed>
  800b1d:	8b b3 a4 0f 01 00    	mov    0x10fa4(%ebx),%esi
  800b23:	8b 83 a4 0f 01 00    	mov    0x10fa4(%ebx),%eax
  800b29:	8b 40 0c             	mov    0xc(%eax),%eax
  800b2c:	83 ec 08             	sub    $0x8,%esp
  800b2f:	6a 04                	push   $0x4
  800b31:	50                   	push   %eax
  800b32:	e8 3e 9c 00 00       	call   80a775 <UTIL_calloc>
  800b37:	83 c4 10             	add    $0x10,%esp
  800b3a:	89 46 08             	mov    %eax,0x8(%esi)
  800b3d:	c7 45 e4 00 00 00 00 	movl   $0x0,-0x1c(%ebp)
  800b44:	e9 f3 00 00 00       	jmp    800c3c <PAL_LoadResources+0x2ec>
  800b49:	c7 c0 a8 bf 85 00    	mov    $0x85bfa8,%eax
  800b4f:	8b 00                	mov    (%eax),%eax
  800b51:	8b 40 20             	mov    0x20(%eax),%eax
  800b54:	8b 55 e0             	mov    -0x20(%ebp),%edx
  800b57:	c1 e2 05             	shl    $0x5,%edx
  800b5a:	01 d0                	add    %edx,%eax
  800b5c:	0f b7 40 10          	movzwl 0x10(%eax),%eax
  800b60:	0f b7 c0             	movzwl %ax,%eax
  800b63:	89 45 d4             	mov    %eax,-0x2c(%ebp)
  800b66:	83 7d d4 00          	cmpl   $0x0,-0x2c(%ebp)
  800b6a:	75 1c                	jne    800b88 <PAL_LoadResources+0x238>
  800b6c:	8b 83 a4 0f 01 00    	mov    0x10fa4(%ebx),%eax
  800b72:	8b 40 08             	mov    0x8(%eax),%eax
  800b75:	8b 55 e4             	mov    -0x1c(%ebp),%edx
  800b78:	c1 e2 02             	shl    $0x2,%edx
  800b7b:	01 d0                	add    %edx,%eax
  800b7d:	c7 00 00 00 00 00    	movl   $0x0,(%eax)
  800b83:	e9 ac 00 00 00       	jmp    800c34 <PAL_LoadResources+0x2e4>
  800b88:	c7 c0 a8 bf 85 00    	mov    $0x85bfa8,%eax
  800b8e:	8b 00                	mov    (%eax),%eax
  800b90:	8b 50 04             	mov    0x4(%eax),%edx
  800b93:	8b 45 d4             	mov    -0x2c(%ebp),%eax
  800b96:	83 ec 08             	sub    $0x8,%esp
  800b99:	52                   	push   %edx
  800b9a:	50                   	push   %eax
  800b9b:	e8 21 43 00 00       	call   804ec1 <PAL_MKFGetDecompressedSize>
  800ba0:	83 c4 10             	add    $0x10,%esp
  800ba3:	89 45 d0             	mov    %eax,-0x30(%ebp)
  800ba6:	8b 83 a4 0f 01 00    	mov    0x10fa4(%ebx),%eax
  800bac:	8b 40 08             	mov    0x8(%eax),%eax
  800baf:	8b 55 e4             	mov    -0x1c(%ebp),%edx
  800bb2:	c1 e2 02             	shl    $0x2,%edx
  800bb5:	8d 34 10             	lea    (%eax,%edx,1),%esi
  800bb8:	8b 45 d0             	mov    -0x30(%ebp),%eax
  800bbb:	83 ec 0c             	sub    $0xc,%esp
  800bbe:	50                   	push   %eax
  800bbf:	e8 50 9b 00 00       	call   80a714 <UTIL_malloc>
  800bc4:	83 c4 10             	add    $0x10,%esp
  800bc7:	89 06                	mov    %eax,(%esi)
  800bc9:	c7 c0 a8 bf 85 00    	mov    $0x85bfa8,%eax
  800bcf:	8b 00                	mov    (%eax),%eax
  800bd1:	8b 70 04             	mov    0x4(%eax),%esi
  800bd4:	8b 4d d4             	mov    -0x2c(%ebp),%ecx
  800bd7:	8b 55 d0             	mov    -0x30(%ebp),%edx
  800bda:	8b 83 a4 0f 01 00    	mov    0x10fa4(%ebx),%eax
  800be0:	8b 40 08             	mov    0x8(%eax),%eax
  800be3:	8b 7d e4             	mov    -0x1c(%ebp),%edi
  800be6:	c1 e7 02             	shl    $0x2,%edi
  800be9:	01 f8                	add    %edi,%eax
  800beb:	8b 00                	mov    (%eax),%eax
  800bed:	56                   	push   %esi
  800bee:	51                   	push   %ecx
  800bef:	52                   	push   %edx
  800bf0:	50                   	push   %eax
  800bf1:	e8 89 43 00 00       	call   804f7f <PAL_MKFDecompressChunk>
  800bf6:	83 c4 10             	add    $0x10,%esp
  800bf9:	85 c0                	test   %eax,%eax
  800bfb:	7e 37                	jle    800c34 <PAL_LoadResources+0x2e4>
  800bfd:	c7 c0 a8 bf 85 00    	mov    $0x85bfa8,%eax
  800c03:	8b 00                	mov    (%eax),%eax
  800c05:	8b 40 20             	mov    0x20(%eax),%eax
  800c08:	8b 55 e0             	mov    -0x20(%ebp),%edx
  800c0b:	c1 e2 05             	shl    $0x5,%edx
  800c0e:	8d 34 10             	lea    (%eax,%edx,1),%esi
  800c11:	8b 83 a4 0f 01 00    	mov    0x10fa4(%ebx),%eax
  800c17:	8b 40 08             	mov    0x8(%eax),%eax
  800c1a:	8b 55 e4             	mov    -0x1c(%ebp),%edx
  800c1d:	c1 e2 02             	shl    $0x2,%edx
  800c20:	01 d0                	add    %edx,%eax
  800c22:	8b 00                	mov    (%eax),%eax
  800c24:	83 ec 0c             	sub    $0xc,%esp
  800c27:	50                   	push   %eax
  800c28:	e8 d4 3f 00 00       	call   804c01 <PAL_SpriteGetNumFrames>
  800c2d:	83 c4 10             	add    $0x10,%esp
  800c30:	66 89 46 1c          	mov    %ax,0x1c(%esi)
  800c34:	83 45 e4 01          	addl   $0x1,-0x1c(%ebp)
  800c38:	83 45 e0 01          	addl   $0x1,-0x20(%ebp)
  800c3c:	8b 83 a4 0f 01 00    	mov    0x10fa4(%ebx),%eax
  800c42:	8b 40 0c             	mov    0xc(%eax),%eax
  800c45:	3b 45 e4             	cmp    -0x1c(%ebp),%eax
  800c48:	0f 8f fb fe ff ff    	jg     800b49 <PAL_LoadResources+0x1f9>
  800c4e:	c7 c0 a8 bf 85 00    	mov    $0x85bfa8,%eax
  800c54:	8b 00                	mov    (%eax),%eax
  800c56:	c7 80 f0 43 00 00 a0 	movl   $0x7000a0,0x43f0(%eax)
  800c5d:	00 70 00 
  800c60:	83 ec 0c             	sub    $0xc,%esp
  800c63:	ff 75 d8             	pushl  -0x28(%ebp)
  800c66:	e8 35 f4 02 00       	call   8300a0 <fclose>
  800c6b:	83 c4 10             	add    $0x10,%esp
  800c6e:	83 ec 0c             	sub    $0xc,%esp
  800c71:	ff 75 dc             	pushl  -0x24(%ebp)
  800c74:	e8 27 f4 02 00       	call   8300a0 <fclose>
  800c79:	83 c4 10             	add    $0x10,%esp
  800c7c:	8b 83 a4 0f 01 00    	mov    0x10fa4(%ebx),%eax
  800c82:	0f b6 00             	movzbl (%eax),%eax
  800c85:	0f b6 c0             	movzbl %al,%eax
  800c88:	83 e0 02             	and    $0x2,%eax
  800c8b:	85 c0                	test   %eax,%eax
  800c8d:	0f 84 bb 01 00 00    	je     800e4e <PAL_LoadResources+0x4fe>
  800c93:	e8 9c fb ff ff       	call   800834 <PAL_FreePlayerSprites>
  800c98:	c7 45 e4 00 00 00 00 	movl   $0x0,-0x1c(%ebp)
  800c9f:	e9 eb 00 00 00       	jmp    800d8f <PAL_LoadResources+0x43f>
  800ca4:	c7 c0 a8 bf 85 00    	mov    $0x85bfa8,%eax
  800caa:	8b 08                	mov    (%eax),%ecx
  800cac:	8b 55 e4             	mov    -0x1c(%ebp),%edx
  800caf:	89 d0                	mov    %edx,%eax
  800cb1:	c1 e0 02             	shl    $0x2,%eax
  800cb4:	01 d0                	add    %edx,%eax
  800cb6:	01 c0                	add    %eax,%eax
  800cb8:	01 c8                	add    %ecx,%eax
  800cba:	05 f8 43 00 00       	add    $0x43f8,%eax
  800cbf:	0f b7 00             	movzwl (%eax),%eax
  800cc2:	66 89 45 ce          	mov    %ax,-0x32(%ebp)
  800cc6:	66 83 7d ce 05       	cmpw   $0x5,-0x32(%ebp)
  800ccb:	76 37                	jbe    800d04 <PAL_LoadResources+0x3b4>
  800ccd:	e8 c3 fa ff ff       	call   800795 <cli>
  800cd2:	83 ec 0c             	sub    $0xc,%esp
  800cd5:	8d 83 20 66 ff ff    	lea    -0x99e0(%ebx),%eax
  800cdb:	50                   	push   %eax
  800cdc:	8d 83 a0 66 ff ff    	lea    -0x9960(%ebx),%eax
  800ce2:	50                   	push   %eax
  800ce3:	68 37 01 00 00       	push   $0x137
  800ce8:	8d 83 3d 66 ff ff    	lea    -0x99c3(%ebx),%eax
  800cee:	50                   	push   %eax
  800cef:	8d 83 58 66 ff ff    	lea    -0x99a8(%ebx),%eax
  800cf5:	50                   	push   %eax
  800cf6:	e8 55 16 03 00       	call   832350 <printf>
  800cfb:	83 c4 20             	add    $0x20,%esp
  800cfe:	b8 01 00 00 00       	mov    $0x1,%eax
  800d03:	82 c7 c0             	add    $0xc0,%bh
  800d06:	a8 bf                	test   $0xbf,%al
  800d08:	85 00                	test   %eax,(%eax)
  800d0a:	8b 00                	mov    (%eax),%eax
  800d0c:	0f b7 55 ce          	movzwl -0x32(%ebp),%edx
  800d10:	81 c2 e8 12 00 00    	add    $0x12e8,%edx
  800d16:	0f b7 44 50 10       	movzwl 0x10(%eax,%edx,2),%eax
  800d1b:	66 89 45 cc          	mov    %ax,-0x34(%ebp)
  800d1f:	c7 c0 a8 bf 85 00    	mov    $0x85bfa8,%eax
  800d25:	8b 00                	mov    (%eax),%eax
  800d27:	8b 50 04             	mov    0x4(%eax),%edx
  800d2a:	0f b7 45 cc          	movzwl -0x34(%ebp),%eax
  800d2e:	83 ec 08             	sub    $0x8,%esp
  800d31:	52                   	push   %edx
  800d32:	50                   	push   %eax
  800d33:	e8 89 41 00 00       	call   804ec1 <PAL_MKFGetDecompressedSize>
  800d38:	83 c4 10             	add    $0x10,%esp
  800d3b:	89 45 d0             	mov    %eax,-0x30(%ebp)
  800d3e:	8b b3 a4 0f 01 00    	mov    0x10fa4(%ebx),%esi
  800d44:	8b 45 d0             	mov    -0x30(%ebp),%eax
  800d47:	83 ec 0c             	sub    $0xc,%esp
  800d4a:	50                   	push   %eax
  800d4b:	e8 c4 99 00 00       	call   80a714 <UTIL_malloc>
  800d50:	83 c4 10             	add    $0x10,%esp
  800d53:	89 c2                	mov    %eax,%edx
  800d55:	8b 45 e4             	mov    -0x1c(%ebp),%eax
  800d58:	83 c0 04             	add    $0x4,%eax
  800d5b:	89 14 86             	mov    %edx,(%esi,%eax,4)
  800d5e:	c7 c0 a8 bf 85 00    	mov    $0x85bfa8,%eax
  800d64:	8b 00                	mov    (%eax),%eax
  800d66:	8b 70 04             	mov    0x4(%eax),%esi
  800d69:	0f b7 4d cc          	movzwl -0x34(%ebp),%ecx
  800d6d:	8b 55 d0             	mov    -0x30(%ebp),%edx
  800d70:	8b 83 a4 0f 01 00    	mov    0x10fa4(%ebx),%eax
  800d76:	8b 7d e4             	mov    -0x1c(%ebp),%edi
  800d79:	83 c7 04             	add    $0x4,%edi
  800d7c:	8b 04 b8             	mov    (%eax,%edi,4),%eax
  800d7f:	56                   	push   %esi
  800d80:	51                   	push   %ecx
  800d81:	52                   	push   %edx
  800d82:	50                   	push   %eax
  800d83:	e8 f7 41 00 00       	call   804f7f <PAL_MKFDecompressChunk>
  800d88:	83 c4 10             	add    $0x10,%esp
  800d8b:	83 45 e4 01          	addl   $0x1,-0x1c(%ebp)
  800d8f:	c7 c0 a8 bf 85 00    	mov    $0x85bfa8,%eax
  800d95:	8b 00                	mov    (%eax),%eax
  800d97:	0f b7 80 f6 43 00 00 	movzwl 0x43f6(%eax),%eax
  800d9e:	98                   	cwtl   
  800d9f:	3b 45 e4             	cmp    -0x1c(%ebp),%eax
  800da2:	0f 8d fc fe ff ff    	jge    800ca4 <PAL_LoadResources+0x354>
  800da8:	c7 c0 a8 bf 85 00    	mov    $0x85bfa8,%eax
  800dae:	8b 00                	mov    (%eax),%eax
  800db0:	0f b7 80 64 44 00 00 	movzwl 0x4464(%eax),%eax
  800db7:	66 85 c0             	test   %ax,%ax
  800dba:	0f 84 8e 00 00 00    	je     800e4e <PAL_LoadResources+0x4fe>
  800dc0:	c7 c0 a8 bf 85 00    	mov    $0x85bfa8,%eax
  800dc6:	8b 08                	mov    (%eax),%ecx
  800dc8:	8b 55 e4             	mov    -0x1c(%ebp),%edx
  800dcb:	89 d0                	mov    %edx,%eax
  800dcd:	c1 e0 02             	shl    $0x2,%eax
  800dd0:	01 d0                	add    %edx,%eax
  800dd2:	01 c0                	add    %eax,%eax
  800dd4:	01 c8                	add    %ecx,%eax
  800dd6:	05 f8 43 00 00       	add    $0x43f8,%eax
  800ddb:	0f b7 00             	movzwl (%eax),%eax
  800dde:	66 89 45 cc          	mov    %ax,-0x34(%ebp)
  800de2:	c7 c0 a8 bf 85 00    	mov    $0x85bfa8,%eax
  800de8:	8b 00                	mov    (%eax),%eax
  800dea:	8b 50 04             	mov    0x4(%eax),%edx
  800ded:	0f b7 45 cc          	movzwl -0x34(%ebp),%eax
  800df1:	83 ec 08             	sub    $0x8,%esp
  800df4:	52                   	push   %edx
  800df5:	50                   	push   %eax
  800df6:	e8 c6 40 00 00       	call   804ec1 <PAL_MKFGetDecompressedSize>
  800dfb:	83 c4 10             	add    $0x10,%esp
  800dfe:	89 45 d0             	mov    %eax,-0x30(%ebp)
  800e01:	8b b3 a4 0f 01 00    	mov    0x10fa4(%ebx),%esi
  800e07:	8b 45 d0             	mov    -0x30(%ebp),%eax
  800e0a:	83 ec 0c             	sub    $0xc,%esp
  800e0d:	50                   	push   %eax
  800e0e:	e8 01 99 00 00       	call   80a714 <UTIL_malloc>
  800e13:	83 c4 10             	add    $0x10,%esp
  800e16:	89 c2                	mov    %eax,%edx
  800e18:	8b 45 e4             	mov    -0x1c(%ebp),%eax
  800e1b:	83 c0 04             	add    $0x4,%eax
  800e1e:	89 14 86             	mov    %edx,(%esi,%eax,4)
  800e21:	c7 c0 a8 bf 85 00    	mov    $0x85bfa8,%eax
  800e27:	8b 00                	mov    (%eax),%eax
  800e29:	8b 70 04             	mov    0x4(%eax),%esi
  800e2c:	0f b7 4d cc          	movzwl -0x34(%ebp),%ecx
  800e30:	8b 55 d0             	mov    -0x30(%ebp),%edx
  800e33:	8b 83 a4 0f 01 00    	mov    0x10fa4(%ebx),%eax
  800e39:	8b 7d e4             	mov    -0x1c(%ebp),%edi
  800e3c:	83 c7 04             	add    $0x4,%edi
  800e3f:	8b 04 b8             	mov    (%eax,%edi,4),%eax
  800e42:	56                   	push   %esi
  800e43:	51                   	push   %ecx
  800e44:	52                   	push   %edx
  800e45:	50                   	push   %eax
  800e46:	e8 34 41 00 00       	call   804f7f <PAL_MKFDecompressChunk>
  800e4b:	83 c4 10             	add    $0x10,%esp
  800e4e:	8b 83 a4 0f 01 00    	mov    0x10fa4(%ebx),%eax
  800e54:	c6 00 00             	movb   $0x0,(%eax)
  800e57:	eb 01                	jmp    800e5a <PAL_LoadResources+0x50a>
  800e59:	90                   	nop
  800e5a:	8d 65 f4             	lea    -0xc(%ebp),%esp
  800e5d:	5b                   	pop    %ebx
  800e5e:	5e                   	pop    %esi
  800e5f:	5f                   	pop    %edi
  800e60:	5d                   	pop    %ebp
  800e61:	c3                   	ret    

00800e62 <PAL_GetCurrentMap>:
  800e62:	55                   	push   %ebp
  800e63:	89 e5                	mov    %esp,%ebp
  800e65:	e8 14 f4 ff ff       	call   80027e <__x86.get_pc_thunk.ax>
  800e6a:	05 96 a1 04 00       	add    $0x4a196,%eax
  800e6f:	8b 90 a4 0f 01 00    	mov    0x10fa4(%eax),%edx
  800e75:	85 d2                	test   %edx,%edx
  800e77:	75 07                	jne    800e80 <PAL_GetCurrentMap+0x1e>
  800e79:	b8 00 00 00 00       	mov    $0x0,%eax
  800e7e:	eb 09                	jmp    800e89 <PAL_GetCurrentMap+0x27>
  800e80:	8b 80 a4 0f 01 00    	mov    0x10fa4(%eax),%eax
  800e86:	8b 40 04             	mov    0x4(%eax),%eax
  800e89:	5d                   	pop    %ebp
  800e8a:	c3                   	ret    

00800e8b <PAL_GetPlayerSprite>:
  800e8b:	55                   	push   %ebp
  800e8c:	89 e5                	mov    %esp,%ebp
  800e8e:	83 ec 04             	sub    $0x4,%esp
  800e91:	e8 e8 f3 ff ff       	call   80027e <__x86.get_pc_thunk.ax>
  800e96:	05 6a a1 04 00       	add    $0x4a16a,%eax
  800e9b:	8b 55 08             	mov    0x8(%ebp),%edx
  800e9e:	88 55 fc             	mov    %dl,-0x4(%ebp)
  800ea1:	8b 90 a4 0f 01 00    	mov    0x10fa4(%eax),%edx
  800ea7:	85 d2                	test   %edx,%edx
  800ea9:	74 06                	je     800eb1 <PAL_GetPlayerSprite+0x26>
  800eab:	80 7d fc 03          	cmpb   $0x3,-0x4(%ebp)
  800eaf:	76 07                	jbe    800eb8 <PAL_GetPlayerSprite+0x2d>
  800eb1:	b8 00 00 00 00       	mov    $0x0,%eax
  800eb6:	eb 10                	jmp    800ec8 <PAL_GetPlayerSprite+0x3d>
  800eb8:	8b 80 a4 0f 01 00    	mov    0x10fa4(%eax),%eax
  800ebe:	0f b6 55 fc          	movzbl -0x4(%ebp),%edx
  800ec2:	83 c2 04             	add    $0x4,%edx
  800ec5:	8b 04 90             	mov    (%eax,%edx,4),%eax
  800ec8:	c9                   	leave  
  800ec9:	c3                   	ret    

00800eca <PAL_GetEventObjectSprite>:
  800eca:	55                   	push   %ebp
  800ecb:	89 e5                	mov    %esp,%ebp
  800ecd:	83 ec 04             	sub    $0x4,%esp
  800ed0:	e8 a9 f3 ff ff       	call   80027e <__x86.get_pc_thunk.ax>
  800ed5:	05 2b a1 04 00       	add    $0x4a12b,%eax
  800eda:	8b 55 08             	mov    0x8(%ebp),%edx
  800edd:	66 89 55 fc          	mov    %dx,-0x4(%ebp)
  800ee1:	c7 c2 a8 bf 85 00    	mov    $0x85bfa8,%edx
  800ee7:	8b 12                	mov    (%edx),%edx
  800ee9:	c7 c1 a8 bf 85 00    	mov    $0x85bfa8,%ecx
  800eef:	8b 09                	mov    (%ecx),%ecx
  800ef1:	0f b7 89 4a 44 00 00 	movzwl 0x444a(%ecx),%ecx
  800ef8:	0f b7 c9             	movzwl %cx,%ecx
  800efb:	83 e9 01             	sub    $0x1,%ecx
  800efe:	83 c1 04             	add    $0x4,%ecx
  800f01:	0f b7 54 ca 0e       	movzwl 0xe(%edx,%ecx,8),%edx
  800f06:	66 29 55 fc          	sub    %dx,-0x4(%ebp)
  800f0a:	0f b7 55 fc          	movzwl -0x4(%ebp),%edx
  800f0e:	83 ea 01             	sub    $0x1,%edx
  800f11:	66 89 55 fc          	mov    %dx,-0x4(%ebp)
  800f15:	8b 90 a4 0f 01 00    	mov    0x10fa4(%eax),%edx
  800f1b:	85 d2                	test   %edx,%edx
  800f1d:	74 11                	je     800f30 <PAL_GetEventObjectSprite+0x66>
  800f1f:	0f b7 4d fc          	movzwl -0x4(%ebp),%ecx
  800f23:	8b 90 a4 0f 01 00    	mov    0x10fa4(%eax),%edx
  800f29:	8b 52 0c             	mov    0xc(%edx),%edx
  800f2c:	39 d1                	cmp    %edx,%ecx
  800f2e:	7c 07                	jl     800f37 <PAL_GetEventObjectSprite+0x6d>
  800f30:	b8 00 00 00 00       	mov    $0x0,%eax
  800f35:	eb 14                	jmp    800f4b <PAL_GetEventObjectSprite+0x81>
  800f37:	8b 80 a4 0f 01 00    	mov    0x10fa4(%eax),%eax
  800f3d:	8b 40 08             	mov    0x8(%eax),%eax
  800f40:	0f b7 55 fc          	movzwl -0x4(%ebp),%edx
  800f44:	c1 e2 02             	shl    $0x2,%edx
  800f47:	01 d0                	add    %edx,%eax
  800f49:	8b 00                	mov    (%eax),%eax
  800f4b:	c9                   	leave  
  800f4c:	c3                   	ret    

00800f4d <cli>:
  800f4d:	55                   	push   %ebp
  800f4e:	89 e5                	mov    %esp,%ebp
  800f50:	e8 29 f3 ff ff       	call   80027e <__x86.get_pc_thunk.ax>
  800f55:	05 ab a0 04 00       	add    $0x4a0ab,%eax
  800f5a:	fa                   	cli    
  800f5b:	90                   	nop
  800f5c:	5d                   	pop    %ebp
  800f5d:	c3                   	ret    

00800f5e <PAL_InitGlobals>:
  800f5e:	55                   	push   %ebp
  800f5f:	89 e5                	mov    %esp,%ebp
  800f61:	56                   	push   %esi
  800f62:	53                   	push   %ebx
  800f63:	e8 1a f3 ff ff       	call   800282 <__x86.get_pc_thunk.bx>
  800f68:	81 c3 98 a0 04 00    	add    $0x4a098,%ebx
  800f6e:	8b 83 a8 0f 01 00    	mov    0x10fa8(%ebx),%eax
  800f74:	85 c0                	test   %eax,%eax
  800f76:	75 2c                	jne    800fa4 <PAL_InitGlobals+0x46>
  800f78:	83 ec 08             	sub    $0x8,%esp
  800f7b:	68 34 4d 00 00       	push   $0x4d34
  800f80:	6a 01                	push   $0x1
  800f82:	e8 f9 ee 02 00       	call   82fe80 <calloc>
  800f87:	83 c4 10             	add    $0x10,%esp
  800f8a:	89 83 a8 0f 01 00    	mov    %eax,0x10fa8(%ebx)
  800f90:	8b 83 a8 0f 01 00    	mov    0x10fa8(%ebx),%eax
  800f96:	85 c0                	test   %eax,%eax
  800f98:	75 0a                	jne    800fa4 <PAL_InitGlobals+0x46>
  800f9a:	b8 ff ff ff ff       	mov    $0xffffffff,%eax
  800f9f:	e9 38 02 00 00       	jmp    8011dc <PAL_InitGlobals+0x27e>
  800fa4:	8d 83 88 69 ff ff    	lea    -0x9678(%ebx),%eax
  800faa:	50                   	push   %eax
  800fab:	6a 45                	push   $0x45
  800fad:	8d 83 b4 66 ff ff    	lea    -0x994c(%ebx),%eax
  800fb3:	50                   	push   %eax
  800fb4:	8d 83 d4 66 ff ff    	lea    -0x992c(%ebx),%eax
  800fba:	50                   	push   %eax
  800fbb:	e8 90 13 03 00       	call   832350 <printf>
  800fc0:	83 c4 10             	add    $0x10,%esp
  800fc3:	8b b3 a8 0f 01 00    	mov    0x10fa8(%ebx),%esi
  800fc9:	83 ec 0c             	sub    $0xc,%esp
  800fcc:	8d 83 02 67 ff ff    	lea    -0x98fe(%ebx),%eax
  800fd2:	50                   	push   %eax
  800fd3:	e8 09 98 00 00       	call   80a7e1 <UTIL_OpenRequiredFile>
  800fd8:	83 c4 10             	add    $0x10,%esp
  800fdb:	89 06                	mov    %eax,(%esi)
  800fdd:	8d 83 88 69 ff ff    	lea    -0x9678(%ebx),%eax
  800fe3:	50                   	push   %eax
  800fe4:	6a 47                	push   $0x47
  800fe6:	8d 83 b4 66 ff ff    	lea    -0x994c(%ebx),%eax
  800fec:	50                   	push   %eax
  800fed:	8d 83 0c 67 ff ff    	lea    -0x98f4(%ebx),%eax
  800ff3:	50                   	push   %eax
  800ff4:	e8 57 13 03 00       	call   832350 <printf>
  800ff9:	83 c4 10             	add    $0x10,%esp
  800ffc:	8b b3 a8 0f 01 00    	mov    0x10fa8(%ebx),%esi
  801002:	83 ec 0c             	sub    $0xc,%esp
  801005:	8d 83 3a 67 ff ff    	lea    -0x98c6(%ebx),%eax
  80100b:	50                   	push   %eax
  80100c:	e8 d0 97 00 00       	call   80a7e1 <UTIL_OpenRequiredFile>
  801011:	83 c4 10             	add    $0x10,%esp
  801014:	89 46 04             	mov    %eax,0x4(%esi)
  801017:	8d 83 88 69 ff ff    	lea    -0x9678(%ebx),%eax
  80101d:	50                   	push   %eax
  80101e:	6a 49                	push   $0x49
  801020:	8d 83 b4 66 ff ff    	lea    -0x994c(%ebx),%eax
  801026:	50                   	push   %eax
  801027:	8d 83 44 67 ff ff    	lea    -0x98bc(%ebx),%eax
  80102d:	50                   	push   %eax
  80102e:	e8 1d 13 03 00       	call   832350 <printf>
  801033:	83 c4 10             	add    $0x10,%esp
  801036:	8b b3 a8 0f 01 00    	mov    0x10fa8(%ebx),%esi
  80103c:	83 ec 0c             	sub    $0xc,%esp
  80103f:	8d 83 73 67 ff ff    	lea    -0x988d(%ebx),%eax
  801045:	50                   	push   %eax
  801046:	e8 96 97 00 00       	call   80a7e1 <UTIL_OpenRequiredFile>
  80104b:	83 c4 10             	add    $0x10,%esp
  80104e:	89 46 08             	mov    %eax,0x8(%esi)
  801051:	8d 83 88 69 ff ff    	lea    -0x9678(%ebx),%eax
  801057:	50                   	push   %eax
  801058:	6a 4b                	push   $0x4b
  80105a:	8d 83 b4 66 ff ff    	lea    -0x994c(%ebx),%eax
  801060:	50                   	push   %eax
  801061:	8d 83 7c 67 ff ff    	lea    -0x9884(%ebx),%eax
  801067:	50                   	push   %eax
  801068:	e8 e3 12 03 00       	call   832350 <printf>
  80106d:	83 c4 10             	add    $0x10,%esp
  801070:	8b b3 a8 0f 01 00    	mov    0x10fa8(%ebx),%esi
  801076:	83 ec 0c             	sub    $0xc,%esp
  801079:	8d 83 ab 67 ff ff    	lea    -0x9855(%ebx),%eax
  80107f:	50                   	push   %eax
  801080:	e8 5c 97 00 00       	call   80a7e1 <UTIL_OpenRequiredFile>
  801085:	83 c4 10             	add    $0x10,%esp
  801088:	89 46 0c             	mov    %eax,0xc(%esi)
  80108b:	8d 83 88 69 ff ff    	lea    -0x9678(%ebx),%eax
  801091:	50                   	push   %eax
  801092:	6a 4d                	push   $0x4d
  801094:	8d 83 b4 66 ff ff    	lea    -0x994c(%ebx),%eax
  80109a:	50                   	push   %eax
  80109b:	8d 83 b4 67 ff ff    	lea    -0x984c(%ebx),%eax
  8010a1:	50                   	push   %eax
  8010a2:	e8 a9 12 03 00       	call   832350 <printf>
  8010a7:	83 c4 10             	add    $0x10,%esp
  8010aa:	8b b3 a8 0f 01 00    	mov    0x10fa8(%ebx),%esi
  8010b0:	83 ec 0c             	sub    $0xc,%esp
  8010b3:	8d 83 e0 67 ff ff    	lea    -0x9820(%ebx),%eax
  8010b9:	50                   	push   %eax
  8010ba:	e8 22 97 00 00       	call   80a7e1 <UTIL_OpenRequiredFile>
  8010bf:	83 c4 10             	add    $0x10,%esp
  8010c2:	89 46 10             	mov    %eax,0x10(%esi)
  8010c5:	8d 83 88 69 ff ff    	lea    -0x9678(%ebx),%eax
  8010cb:	50                   	push   %eax
  8010cc:	6a 4f                	push   $0x4f
  8010ce:	8d 83 b4 66 ff ff    	lea    -0x994c(%ebx),%eax
  8010d4:	50                   	push   %eax
  8010d5:	8d 83 e8 67 ff ff    	lea    -0x9818(%ebx),%eax
  8010db:	50                   	push   %eax
  8010dc:	e8 6f 12 03 00       	call   832350 <printf>
  8010e1:	83 c4 10             	add    $0x10,%esp
  8010e4:	8b b3 a8 0f 01 00    	mov    0x10fa8(%ebx),%esi
  8010ea:	83 ec 0c             	sub    $0xc,%esp
  8010ed:	8d 83 17 68 ff ff    	lea    -0x97e9(%ebx),%eax
  8010f3:	50                   	push   %eax
  8010f4:	e8 e8 96 00 00       	call   80a7e1 <UTIL_OpenRequiredFile>
  8010f9:	83 c4 10             	add    $0x10,%esp
  8010fc:	89 46 14             	mov    %eax,0x14(%esi)
  8010ff:	8d 83 88 69 ff ff    	lea    -0x9678(%ebx),%eax
  801105:	50                   	push   %eax
  801106:	6a 51                	push   $0x51
  801108:	8d 83 b4 66 ff ff    	lea    -0x994c(%ebx),%eax
  80110e:	50                   	push   %eax
  80110f:	8d 83 20 68 ff ff    	lea    -0x97e0(%ebx),%eax
  801115:	50                   	push   %eax
  801116:	e8 35 12 03 00       	call   832350 <printf>
  80111b:	83 c4 10             	add    $0x10,%esp
  80111e:	8b b3 a8 0f 01 00    	mov    0x10fa8(%ebx),%esi
  801124:	83 ec 0c             	sub    $0xc,%esp
  801127:	8d 83 4e 68 ff ff    	lea    -0x97b2(%ebx),%eax
  80112d:	50                   	push   %eax
  80112e:	e8 ae 96 00 00       	call   80a7e1 <UTIL_OpenRequiredFile>
  801133:	83 c4 10             	add    $0x10,%esp
  801136:	89 46 18             	mov    %eax,0x18(%esi)
  801139:	8d 83 88 69 ff ff    	lea    -0x9678(%ebx),%eax
  80113f:	50                   	push   %eax
  801140:	6a 53                	push   $0x53
  801142:	8d 83 b4 66 ff ff    	lea    -0x994c(%ebx),%eax
  801148:	50                   	push   %eax
  801149:	8d 83 58 68 ff ff    	lea    -0x97a8(%ebx),%eax
  80114f:	50                   	push   %eax
  801150:	e8 fb 11 03 00       	call   832350 <printf>
  801155:	83 c4 10             	add    $0x10,%esp
  801158:	8b b3 a8 0f 01 00    	mov    0x10fa8(%ebx),%esi
  80115e:	83 ec 0c             	sub    $0xc,%esp
  801161:	8d 83 86 68 ff ff    	lea    -0x977a(%ebx),%eax
  801167:	50                   	push   %eax
  801168:	e8 74 96 00 00       	call   80a7e1 <UTIL_OpenRequiredFile>
  80116d:	83 c4 10             	add    $0x10,%esp
  801170:	89 46 1c             	mov    %eax,0x1c(%esi)
  801173:	8d 83 88 69 ff ff    	lea    -0x9678(%ebx),%eax
  801179:	50                   	push   %eax
  80117a:	6a 56                	push   $0x56
  80117c:	8d 83 b4 66 ff ff    	lea    -0x994c(%ebx),%eax
  801182:	50                   	push   %eax
  801183:	8d 83 90 68 ff ff    	lea    -0x9770(%ebx),%eax
  801189:	50                   	push   %eax
  80118a:	e8 c1 11 03 00       	call   832350 <printf>
  80118f:	83 c4 10             	add    $0x10,%esp
  801192:	8b b3 a8 0f 01 00    	mov    0x10fa8(%ebx),%esi
  801198:	83 ec 04             	sub    $0x4,%esp
  80119b:	8d 83 bf 68 ff ff    	lea    -0x9741(%ebx),%eax
  8011a1:	50                   	push   %eax
  8011a2:	8d 83 c8 68 ff ff    	lea    -0x9738(%ebx),%eax
  8011a8:	50                   	push   %eax
  8011a9:	8d 83 c9 68 ff ff    	lea    -0x9737(%ebx),%eax
  8011af:	50                   	push   %eax
  8011b0:	e8 f4 92 00 00       	call   80a4a9 <va>
  8011b5:	83 c4 10             	add    $0x10,%esp
  8011b8:	83 ec 0c             	sub    $0xc,%esp
  8011bb:	50                   	push   %eax
  8011bc:	e8 8b da 01 00       	call   81ec4c <PAL_LoadObjectDesc>
  8011c1:	83 c4 10             	add    $0x10,%esp
  8011c4:	89 86 2c 4d 00 00    	mov    %eax,0x4d2c(%esi)
  8011ca:	8b 83 a8 0f 01 00    	mov    0x10fa8(%ebx),%eax
  8011d0:	c6 80 b8 2a 00 00 01 	movb   $0x1,0x2ab8(%eax)
  8011d7:	b8 00 00 00 00       	mov    $0x0,%eax
  8011dc:	8d 65 f8             	lea    -0x8(%ebp),%esp
  8011df:	5b                   	pop    %ebx
  8011e0:	5e                   	pop    %esi
  8011e1:	5d                   	pop    %ebp
  8011e2:	c3                   	ret    

008011e3 <PAL_FreeGlobals>:
  8011e3:	55                   	push   %ebp
  8011e4:	89 e5                	mov    %esp,%ebp
  8011e6:	53                   	push   %ebx
  8011e7:	83 ec 04             	sub    $0x4,%esp
  8011ea:	e8 93 f0 ff ff       	call   800282 <__x86.get_pc_thunk.bx>
  8011ef:	81 c3 11 9e 04 00    	add    $0x49e11,%ebx
  8011f5:	8b 83 a8 0f 01 00    	mov    0x10fa8(%ebx),%eax
  8011fb:	85 c0                	test   %eax,%eax
  8011fd:	0f 84 8e 01 00 00    	je     801391 <PAL_FreeGlobals+0x1ae>
  801203:	8b 83 a8 0f 01 00    	mov    0x10fa8(%ebx),%eax
  801209:	8b 00                	mov    (%eax),%eax
  80120b:	83 ec 0c             	sub    $0xc,%esp
  80120e:	50                   	push   %eax
  80120f:	e8 b2 97 00 00       	call   80a9c6 <UTIL_CloseFile>
  801214:	83 c4 10             	add    $0x10,%esp
  801217:	8b 83 a8 0f 01 00    	mov    0x10fa8(%ebx),%eax
  80121d:	8b 40 04             	mov    0x4(%eax),%eax
  801220:	83 ec 0c             	sub    $0xc,%esp
  801223:	50                   	push   %eax
  801224:	e8 9d 97 00 00       	call   80a9c6 <UTIL_CloseFile>
  801229:	83 c4 10             	add    $0x10,%esp
  80122c:	8b 83 a8 0f 01 00    	mov    0x10fa8(%ebx),%eax
  801232:	8b 40 08             	mov    0x8(%eax),%eax
  801235:	83 ec 0c             	sub    $0xc,%esp
  801238:	50                   	push   %eax
  801239:	e8 88 97 00 00       	call   80a9c6 <UTIL_CloseFile>
  80123e:	83 c4 10             	add    $0x10,%esp
  801241:	8b 83 a8 0f 01 00    	mov    0x10fa8(%ebx),%eax
  801247:	8b 40 0c             	mov    0xc(%eax),%eax
  80124a:	83 ec 0c             	sub    $0xc,%esp
  80124d:	50                   	push   %eax
  80124e:	e8 73 97 00 00       	call   80a9c6 <UTIL_CloseFile>
  801253:	83 c4 10             	add    $0x10,%esp
  801256:	8b 83 a8 0f 01 00    	mov    0x10fa8(%ebx),%eax
  80125c:	8b 40 10             	mov    0x10(%eax),%eax
  80125f:	83 ec 0c             	sub    $0xc,%esp
  801262:	50                   	push   %eax
  801263:	e8 5e 97 00 00       	call   80a9c6 <UTIL_CloseFile>
  801268:	83 c4 10             	add    $0x10,%esp
  80126b:	8b 83 a8 0f 01 00    	mov    0x10fa8(%ebx),%eax
  801271:	8b 40 14             	mov    0x14(%eax),%eax
  801274:	83 ec 0c             	sub    $0xc,%esp
  801277:	50                   	push   %eax
  801278:	e8 49 97 00 00       	call   80a9c6 <UTIL_CloseFile>
  80127d:	83 c4 10             	add    $0x10,%esp
  801280:	8b 83 a8 0f 01 00    	mov    0x10fa8(%ebx),%eax
  801286:	8b 40 18             	mov    0x18(%eax),%eax
  801289:	83 ec 0c             	sub    $0xc,%esp
  80128c:	50                   	push   %eax
  80128d:	e8 34 97 00 00       	call   80a9c6 <UTIL_CloseFile>
  801292:	83 c4 10             	add    $0x10,%esp
  801295:	8b 83 a8 0f 01 00    	mov    0x10fa8(%ebx),%eax
  80129b:	8b 40 1c             	mov    0x1c(%eax),%eax
  80129e:	83 ec 0c             	sub    $0xc,%esp
  8012a1:	50                   	push   %eax
  8012a2:	e8 1f 97 00 00       	call   80a9c6 <UTIL_CloseFile>
  8012a7:	83 c4 10             	add    $0x10,%esp
  8012aa:	8b 83 a8 0f 01 00    	mov    0x10fa8(%ebx),%eax
  8012b0:	8b 40 20             	mov    0x20(%eax),%eax
  8012b3:	83 ec 0c             	sub    $0xc,%esp
  8012b6:	50                   	push   %eax
  8012b7:	e8 94 06 03 00       	call   831950 <free>
  8012bc:	83 c4 10             	add    $0x10,%esp
  8012bf:	8b 83 a8 0f 01 00    	mov    0x10fa8(%ebx),%eax
  8012c5:	8b 80 a8 25 00 00    	mov    0x25a8(%eax),%eax
  8012cb:	83 ec 0c             	sub    $0xc,%esp
  8012ce:	50                   	push   %eax
  8012cf:	e8 7c 06 03 00       	call   831950 <free>
  8012d4:	83 c4 10             	add    $0x10,%esp
  8012d7:	8b 83 a8 0f 01 00    	mov    0x10fa8(%ebx),%eax
  8012dd:	8b 80 b0 25 00 00    	mov    0x25b0(%eax),%eax
  8012e3:	83 ec 0c             	sub    $0xc,%esp
  8012e6:	50                   	push   %eax
  8012e7:	e8 64 06 03 00       	call   831950 <free>
  8012ec:	83 c4 10             	add    $0x10,%esp
  8012ef:	8b 83 a8 0f 01 00    	mov    0x10fa8(%ebx),%eax
  8012f5:	8b 80 b8 25 00 00    	mov    0x25b8(%eax),%eax
  8012fb:	83 ec 0c             	sub    $0xc,%esp
  8012fe:	50                   	push   %eax
  8012ff:	e8 4c 06 03 00       	call   831950 <free>
  801304:	83 c4 10             	add    $0x10,%esp
  801307:	8b 83 a8 0f 01 00    	mov    0x10fa8(%ebx),%eax
  80130d:	8b 80 c0 25 00 00    	mov    0x25c0(%eax),%eax
  801313:	83 ec 0c             	sub    $0xc,%esp
  801316:	50                   	push   %eax
  801317:	e8 34 06 03 00       	call   831950 <free>
  80131c:	83 c4 10             	add    $0x10,%esp
  80131f:	8b 83 a8 0f 01 00    	mov    0x10fa8(%ebx),%eax
  801325:	8b 80 4c 29 00 00    	mov    0x294c(%eax),%eax
  80132b:	83 ec 0c             	sub    $0xc,%esp
  80132e:	50                   	push   %eax
  80132f:	e8 1c 06 03 00       	call   831950 <free>
  801334:	83 c4 10             	add    $0x10,%esp
  801337:	8b 83 a8 0f 01 00    	mov    0x10fa8(%ebx),%eax
  80133d:	8b 80 54 29 00 00    	mov    0x2954(%eax),%eax
  801343:	83 ec 0c             	sub    $0xc,%esp
  801346:	50                   	push   %eax
  801347:	e8 04 06 03 00       	call   831950 <free>
  80134c:	83 c4 10             	add    $0x10,%esp
  80134f:	8b 83 a8 0f 01 00    	mov    0x10fa8(%ebx),%eax
  801355:	8b 80 5c 29 00 00    	mov    0x295c(%eax),%eax
  80135b:	83 ec 0c             	sub    $0xc,%esp
  80135e:	50                   	push   %eax
  80135f:	e8 ec 05 03 00       	call   831950 <free>
  801364:	83 c4 10             	add    $0x10,%esp
  801367:	8b 83 a8 0f 01 00    	mov    0x10fa8(%ebx),%eax
  80136d:	8b 80 2c 4d 00 00    	mov    0x4d2c(%eax),%eax
  801373:	83 ec 0c             	sub    $0xc,%esp
  801376:	50                   	push   %eax
  801377:	e8 e5 d9 01 00       	call   81ed61 <PAL_FreeObjectDesc>
  80137c:	83 c4 10             	add    $0x10,%esp
  80137f:	8b 83 a8 0f 01 00    	mov    0x10fa8(%ebx),%eax
  801385:	83 ec 0c             	sub    $0xc,%esp
  801388:	50                   	push   %eax
  801389:	e8 c2 05 03 00       	call   831950 <free>
  80138e:	83 c4 10             	add    $0x10,%esp
  801391:	c7 83 a8 0f 01 00 00 	movl   $0x0,0x10fa8(%ebx)
  801398:	00 00 00 
  80139b:	90                   	nop
  80139c:	8b 5d fc             	mov    -0x4(%ebp),%ebx
  80139f:	c9                   	leave  
  8013a0:	c3                   	ret    

008013a1 <PAL_ReadGlobalGameData>:
  8013a1:	55                   	push   %ebp
  8013a2:	89 e5                	mov    %esp,%ebp
  8013a4:	53                   	push   %ebx
  8013a5:	83 ec 14             	sub    $0x14,%esp
  8013a8:	e8 d5 ee ff ff       	call   800282 <__x86.get_pc_thunk.bx>
  8013ad:	81 c3 53 9c 04 00    	add    $0x49c53,%ebx
  8013b3:	8b 83 a8 0f 01 00    	mov    0x10fa8(%ebx),%eax
  8013b9:	83 c0 20             	add    $0x20,%eax
  8013bc:	89 45 f0             	mov    %eax,-0x10(%ebp)
  8013bf:	8b 83 a8 0f 01 00    	mov    0x10fa8(%ebx),%eax
  8013c5:	8b 50 1c             	mov    0x1c(%eax),%edx
  8013c8:	8b 45 f0             	mov    -0x10(%ebp),%eax
  8013cb:	8b 80 8c 25 00 00    	mov    0x258c(%eax),%eax
  8013d1:	8d 0c c5 00 00 00 00 	lea    0x0(,%eax,8),%ecx
  8013d8:	8b 45 f0             	mov    -0x10(%ebp),%eax
  8013db:	8b 80 88 25 00 00    	mov    0x2588(%eax),%eax
  8013e1:	52                   	push   %edx
  8013e2:	6a 04                	push   $0x4
  8013e4:	51                   	push   %ecx
  8013e5:	50                   	push   %eax
  8013e6:	e8 d6 39 00 00       	call   804dc1 <PAL_MKFReadChunk>
  8013eb:	83 c4 10             	add    $0x10,%esp
  8013ee:	c7 45 f4 00 00 00 00 	movl   $0x0,-0xc(%ebp)
  8013f5:	eb 2a                	jmp    801421 <PAL_ReadGlobalGameData+0x80>
  8013f7:	8b 45 f0             	mov    -0x10(%ebp),%eax
  8013fa:	8b 80 88 25 00 00    	mov    0x2588(%eax),%eax
  801400:	8b 55 f4             	mov    -0xc(%ebp),%edx
  801403:	01 d2                	add    %edx,%edx
  801405:	01 c2                	add    %eax,%edx
  801407:	8b 45 f0             	mov    -0x10(%ebp),%eax
  80140a:	8b 80 88 25 00 00    	mov    0x2588(%eax),%eax
  801410:	8b 4d f4             	mov    -0xc(%ebp),%ecx
  801413:	01 c9                	add    %ecx,%ecx
  801415:	01 c8                	add    %ecx,%eax
  801417:	0f b7 00             	movzwl (%eax),%eax
  80141a:	66 89 02             	mov    %ax,(%edx)
  80141d:	83 45 f4 01          	addl   $0x1,-0xc(%ebp)
  801421:	8b 45 f0             	mov    -0x10(%ebp),%eax
  801424:	8b 80 8c 25 00 00    	mov    0x258c(%eax),%eax
  80142a:	c1 e0 03             	shl    $0x3,%eax
  80142d:	d1 e8                	shr    %eax
  80142f:	3b 45 f4             	cmp    -0xc(%ebp),%eax
  801432:	77 c3                	ja     8013f7 <PAL_ReadGlobalGameData+0x56>
  801434:	8b 83 a8 0f 01 00    	mov    0x10fa8(%ebx),%eax
  80143a:	8b 50 0c             	mov    0xc(%eax),%edx
  80143d:	8b 45 f0             	mov    -0x10(%ebp),%eax
  801440:	8b 80 94 25 00 00    	mov    0x2594(%eax),%eax
  801446:	89 c1                	mov    %eax,%ecx
  801448:	89 c8                	mov    %ecx,%eax
  80144a:	c1 e0 03             	shl    $0x3,%eax
  80144d:	01 c8                	add    %ecx,%eax
  80144f:	01 c0                	add    %eax,%eax
  801451:	89 c1                	mov    %eax,%ecx
  801453:	8b 45 f0             	mov    -0x10(%ebp),%eax
  801456:	8b 80 90 25 00 00    	mov    0x2590(%eax),%eax
  80145c:	52                   	push   %edx
  80145d:	6a 00                	push   $0x0
  80145f:	51                   	push   %ecx
  801460:	50                   	push   %eax
  801461:	e8 5b 39 00 00       	call   804dc1 <PAL_MKFReadChunk>
  801466:	83 c4 10             	add    $0x10,%esp
  801469:	c7 45 f4 00 00 00 00 	movl   $0x0,-0xc(%ebp)
  801470:	eb 2a                	jmp    80149c <PAL_ReadGlobalGameData+0xfb>
  801472:	8b 45 f0             	mov    -0x10(%ebp),%eax
  801475:	8b 80 90 25 00 00    	mov    0x2590(%eax),%eax
  80147b:	8b 55 f4             	mov    -0xc(%ebp),%edx
  80147e:	01 d2                	add    %edx,%edx
  801480:	01 c2                	add    %eax,%edx
  801482:	8b 45 f0             	mov    -0x10(%ebp),%eax
  801485:	8b 80 90 25 00 00    	mov    0x2590(%eax),%eax
  80148b:	8b 4d f4             	mov    -0xc(%ebp),%ecx
  80148e:	01 c9                	add    %ecx,%ecx
  801490:	01 c8                	add    %ecx,%eax
  801492:	0f b7 00             	movzwl (%eax),%eax
  801495:	66 89 02             	mov    %ax,(%edx)
  801498:	83 45 f4 01          	addl   $0x1,-0xc(%ebp)
  80149c:	8b 45 f0             	mov    -0x10(%ebp),%eax
  80149f:	8b 80 94 25 00 00    	mov    0x2594(%eax),%eax
  8014a5:	89 c2                	mov    %eax,%edx
  8014a7:	89 d0                	mov    %edx,%eax
  8014a9:	c1 e0 03             	shl    $0x3,%eax
  8014ac:	01 d0                	add    %edx,%eax
  8014ae:	01 c0                	add    %eax,%eax
  8014b0:	d1 e8                	shr    %eax
  8014b2:	3b 45 f4             	cmp    -0xc(%ebp),%eax
  8014b5:	77 bb                	ja     801472 <PAL_ReadGlobalGameData+0xd1>
  8014b7:	8b 83 a8 0f 01 00    	mov    0x10fa8(%ebx),%eax
  8014bd:	8b 48 0c             	mov    0xc(%eax),%ecx
  8014c0:	8b 45 f0             	mov    -0x10(%ebp),%eax
  8014c3:	8b 80 9c 25 00 00    	mov    0x259c(%eax),%eax
  8014c9:	6b d0 46             	imul   $0x46,%eax,%edx
  8014cc:	8b 45 f0             	mov    -0x10(%ebp),%eax
  8014cf:	8b 80 98 25 00 00    	mov    0x2598(%eax),%eax
  8014d5:	51                   	push   %ecx
  8014d6:	6a 01                	push   $0x1
  8014d8:	52                   	push   %edx
  8014d9:	50                   	push   %eax
  8014da:	e8 e2 38 00 00       	call   804dc1 <PAL_MKFReadChunk>
  8014df:	83 c4 10             	add    $0x10,%esp
  8014e2:	c7 45 f4 00 00 00 00 	movl   $0x0,-0xc(%ebp)
  8014e9:	eb 2a                	jmp    801515 <PAL_ReadGlobalGameData+0x174>
  8014eb:	8b 45 f0             	mov    -0x10(%ebp),%eax
  8014ee:	8b 80 98 25 00 00    	mov    0x2598(%eax),%eax
  8014f4:	8b 55 f4             	mov    -0xc(%ebp),%edx
  8014f7:	01 d2                	add    %edx,%edx
  8014f9:	01 c2                	add    %eax,%edx
  8014fb:	8b 45 f0             	mov    -0x10(%ebp),%eax
  8014fe:	8b 80 98 25 00 00    	mov    0x2598(%eax),%eax
  801504:	8b 4d f4             	mov    -0xc(%ebp),%ecx
  801507:	01 c9                	add    %ecx,%ecx
  801509:	01 c8                	add    %ecx,%eax
  80150b:	0f b7 00             	movzwl (%eax),%eax
  80150e:	66 89 02             	mov    %ax,(%edx)
  801511:	83 45 f4 01          	addl   $0x1,-0xc(%ebp)
  801515:	8b 45 f0             	mov    -0x10(%ebp),%eax
  801518:	8b 80 9c 25 00 00    	mov    0x259c(%eax),%eax
  80151e:	6b c0 46             	imul   $0x46,%eax,%eax
  801521:	d1 e8                	shr    %eax
  801523:	3b 45 f4             	cmp    -0xc(%ebp),%eax
  801526:	77 c3                	ja     8014eb <PAL_ReadGlobalGameData+0x14a>
  801528:	8b 83 a8 0f 01 00    	mov    0x10fa8(%ebx),%eax
  80152e:	8b 50 0c             	mov    0xc(%eax),%edx
  801531:	8b 45 f0             	mov    -0x10(%ebp),%eax
  801534:	8b 80 a4 25 00 00    	mov    0x25a4(%eax),%eax
  80153a:	89 c1                	mov    %eax,%ecx
  80153c:	89 c8                	mov    %ecx,%eax
  80153e:	c1 e0 02             	shl    $0x2,%eax
  801541:	01 c8                	add    %ecx,%eax
  801543:	01 c0                	add    %eax,%eax
  801545:	89 c1                	mov    %eax,%ecx
  801547:	8b 45 f0             	mov    -0x10(%ebp),%eax
  80154a:	8b 80 a0 25 00 00    	mov    0x25a0(%eax),%eax
  801550:	52                   	push   %edx
  801551:	6a 02                	push   $0x2
  801553:	51                   	push   %ecx
  801554:	50                   	push   %eax
  801555:	e8 67 38 00 00       	call   804dc1 <PAL_MKFReadChunk>
  80155a:	83 c4 10             	add    $0x10,%esp
  80155d:	c7 45 f4 00 00 00 00 	movl   $0x0,-0xc(%ebp)
  801564:	eb 2a                	jmp    801590 <PAL_ReadGlobalGameData+0x1ef>
  801566:	8b 45 f0             	mov    -0x10(%ebp),%eax
  801569:	8b 80 a0 25 00 00    	mov    0x25a0(%eax),%eax
  80156f:	8b 55 f4             	mov    -0xc(%ebp),%edx
  801572:	01 d2                	add    %edx,%edx
  801574:	01 c2                	add    %eax,%edx
  801576:	8b 45 f0             	mov    -0x10(%ebp),%eax
  801579:	8b 80 a0 25 00 00    	mov    0x25a0(%eax),%eax
  80157f:	8b 4d f4             	mov    -0xc(%ebp),%ecx
  801582:	01 c9                	add    %ecx,%ecx
  801584:	01 c8                	add    %ecx,%eax
  801586:	0f b7 00             	movzwl (%eax),%eax
  801589:	66 89 02             	mov    %ax,(%edx)
  80158c:	83 45 f4 01          	addl   $0x1,-0xc(%ebp)
  801590:	8b 45 f0             	mov    -0x10(%ebp),%eax
  801593:	8b 80 a4 25 00 00    	mov    0x25a4(%eax),%eax
  801599:	89 c2                	mov    %eax,%edx
  80159b:	89 d0                	mov    %edx,%eax
  80159d:	c1 e0 02             	shl    $0x2,%eax
  8015a0:	01 d0                	add    %edx,%eax
  8015a2:	01 c0                	add    %eax,%eax
  8015a4:	d1 e8                	shr    %eax
  8015a6:	3b 45 f4             	cmp    -0xc(%ebp),%eax
  8015a9:	77 bb                	ja     801566 <PAL_ReadGlobalGameData+0x1c5>
  8015ab:	8b 83 a8 0f 01 00    	mov    0x10fa8(%ebx),%eax
  8015b1:	8b 50 0c             	mov    0xc(%eax),%edx
  8015b4:	8b 45 f0             	mov    -0x10(%ebp),%eax
  8015b7:	8b 80 30 29 00 00    	mov    0x2930(%eax),%eax
  8015bd:	c1 e0 05             	shl    $0x5,%eax
  8015c0:	89 c1                	mov    %eax,%ecx
  8015c2:	8b 45 f0             	mov    -0x10(%ebp),%eax
  8015c5:	8b 80 2c 29 00 00    	mov    0x292c(%eax),%eax
  8015cb:	52                   	push   %edx
  8015cc:	6a 04                	push   $0x4
  8015ce:	51                   	push   %ecx
  8015cf:	50                   	push   %eax
  8015d0:	e8 ec 37 00 00       	call   804dc1 <PAL_MKFReadChunk>
  8015d5:	83 c4 10             	add    $0x10,%esp
  8015d8:	c7 45 f4 00 00 00 00 	movl   $0x0,-0xc(%ebp)
  8015df:	eb 2a                	jmp    80160b <PAL_ReadGlobalGameData+0x26a>
  8015e1:	8b 45 f0             	mov    -0x10(%ebp),%eax
  8015e4:	8b 80 2c 29 00 00    	mov    0x292c(%eax),%eax
  8015ea:	8b 55 f4             	mov    -0xc(%ebp),%edx
  8015ed:	01 d2                	add    %edx,%edx
  8015ef:	01 c2                	add    %eax,%edx
  8015f1:	8b 45 f0             	mov    -0x10(%ebp),%eax
  8015f4:	8b 80 2c 29 00 00    	mov    0x292c(%eax),%eax
  8015fa:	8b 4d f4             	mov    -0xc(%ebp),%ecx
  8015fd:	01 c9                	add    %ecx,%ecx
  8015ff:	01 c8                	add    %ecx,%eax
  801601:	0f b7 00             	movzwl (%eax),%eax
  801604:	66 89 02             	mov    %ax,(%edx)
  801607:	83 45 f4 01          	addl   $0x1,-0xc(%ebp)
  80160b:	8b 45 f0             	mov    -0x10(%ebp),%eax
  80160e:	8b 80 30 29 00 00    	mov    0x2930(%eax),%eax
  801614:	c1 e0 05             	shl    $0x5,%eax
  801617:	d1 e8                	shr    %eax
  801619:	3b 45 f4             	cmp    -0xc(%ebp),%eax
  80161c:	77 c3                	ja     8015e1 <PAL_ReadGlobalGameData+0x240>
  80161e:	8b 83 a8 0f 01 00    	mov    0x10fa8(%ebx),%eax
  801624:	8b 50 0c             	mov    0xc(%eax),%edx
  801627:	8b 45 f0             	mov    -0x10(%ebp),%eax
  80162a:	8b 80 38 29 00 00    	mov    0x2938(%eax),%eax
  801630:	89 c1                	mov    %eax,%ecx
  801632:	89 c8                	mov    %ecx,%eax
  801634:	01 c0                	add    %eax,%eax
  801636:	01 c8                	add    %ecx,%eax
  801638:	c1 e0 02             	shl    $0x2,%eax
  80163b:	89 c1                	mov    %eax,%ecx
  80163d:	8b 45 f0             	mov    -0x10(%ebp),%eax
  801640:	8b 80 34 29 00 00    	mov    0x2934(%eax),%eax
  801646:	52                   	push   %edx
  801647:	6a 05                	push   $0x5
  801649:	51                   	push   %ecx
  80164a:	50                   	push   %eax
  80164b:	e8 71 37 00 00       	call   804dc1 <PAL_MKFReadChunk>
  801650:	83 c4 10             	add    $0x10,%esp
  801653:	c7 45 f4 00 00 00 00 	movl   $0x0,-0xc(%ebp)
  80165a:	eb 2a                	jmp    801686 <PAL_ReadGlobalGameData+0x2e5>
  80165c:	8b 45 f0             	mov    -0x10(%ebp),%eax
  80165f:	8b 80 34 29 00 00    	mov    0x2934(%eax),%eax
  801665:	8b 55 f4             	mov    -0xc(%ebp),%edx
  801668:	01 d2                	add    %edx,%edx
  80166a:	01 c2                	add    %eax,%edx
  80166c:	8b 45 f0             	mov    -0x10(%ebp),%eax
  80166f:	8b 80 34 29 00 00    	mov    0x2934(%eax),%eax
  801675:	8b 4d f4             	mov    -0xc(%ebp),%ecx
  801678:	01 c9                	add    %ecx,%ecx
  80167a:	01 c8                	add    %ecx,%eax
  80167c:	0f b7 00             	movzwl (%eax),%eax
  80167f:	66 89 02             	mov    %ax,(%edx)
  801682:	83 45 f4 01          	addl   $0x1,-0xc(%ebp)
  801686:	8b 45 f0             	mov    -0x10(%ebp),%eax
  801689:	8b 80 38 29 00 00    	mov    0x2938(%eax),%eax
  80168f:	89 c2                	mov    %eax,%edx
  801691:	89 d0                	mov    %edx,%eax
  801693:	01 c0                	add    %eax,%eax
  801695:	01 d0                	add    %edx,%eax
  801697:	c1 e0 02             	shl    $0x2,%eax
  80169a:	d1 e8                	shr    %eax
  80169c:	3b 45 f4             	cmp    -0xc(%ebp),%eax
  80169f:	77 bb                	ja     80165c <PAL_ReadGlobalGameData+0x2bb>
  8016a1:	8b 83 a8 0f 01 00    	mov    0x10fa8(%ebx),%eax
  8016a7:	8b 50 0c             	mov    0xc(%eax),%edx
  8016aa:	8b 45 f0             	mov    -0x10(%ebp),%eax
  8016ad:	8b 80 40 29 00 00    	mov    0x2940(%eax),%eax
  8016b3:	89 c1                	mov    %eax,%ecx
  8016b5:	89 c8                	mov    %ecx,%eax
  8016b7:	c1 e0 02             	shl    $0x2,%eax
  8016ba:	01 c8                	add    %ecx,%eax
  8016bc:	c1 e0 02             	shl    $0x2,%eax
  8016bf:	89 c1                	mov    %eax,%ecx
  8016c1:	8b 45 f0             	mov    -0x10(%ebp),%eax
  8016c4:	8b 80 3c 29 00 00    	mov    0x293c(%eax),%eax
  8016ca:	52                   	push   %edx
  8016cb:	6a 06                	push   $0x6
  8016cd:	51                   	push   %ecx
  8016ce:	50                   	push   %eax
  8016cf:	e8 ed 36 00 00       	call   804dc1 <PAL_MKFReadChunk>
  8016d4:	83 c4 10             	add    $0x10,%esp
  8016d7:	c7 45 f4 00 00 00 00 	movl   $0x0,-0xc(%ebp)
  8016de:	eb 2a                	jmp    80170a <PAL_ReadGlobalGameData+0x369>
  8016e0:	8b 45 f0             	mov    -0x10(%ebp),%eax
  8016e3:	8b 80 3c 29 00 00    	mov    0x293c(%eax),%eax
  8016e9:	8b 55 f4             	mov    -0xc(%ebp),%edx
  8016ec:	01 d2                	add    %edx,%edx
  8016ee:	01 c2                	add    %eax,%edx
  8016f0:	8b 45 f0             	mov    -0x10(%ebp),%eax
  8016f3:	8b 80 3c 29 00 00    	mov    0x293c(%eax),%eax
  8016f9:	8b 4d f4             	mov    -0xc(%ebp),%ecx
  8016fc:	01 c9                	add    %ecx,%ecx
  8016fe:	01 c8                	add    %ecx,%eax
  801700:	0f b7 00             	movzwl (%eax),%eax
  801703:	66 89 02             	mov    %ax,(%edx)
  801706:	83 45 f4 01          	addl   $0x1,-0xc(%ebp)
  80170a:	8b 45 f0             	mov    -0x10(%ebp),%eax
  80170d:	8b 80 40 29 00 00    	mov    0x2940(%eax),%eax
  801713:	89 c2                	mov    %eax,%edx
  801715:	89 d0                	mov    %edx,%eax
  801717:	c1 e0 02             	shl    $0x2,%eax
  80171a:	01 d0                	add    %edx,%eax
  80171c:	c1 e0 02             	shl    $0x2,%eax
  80171f:	d1 e8                	shr    %eax
  801721:	3b 45 f4             	cmp    -0xc(%ebp),%eax
  801724:	77 ba                	ja     8016e0 <PAL_ReadGlobalGameData+0x33f>
  801726:	8b 83 a8 0f 01 00    	mov    0x10fa8(%ebx),%eax
  80172c:	8b 40 0c             	mov    0xc(%eax),%eax
  80172f:	8b 55 f0             	mov    -0x10(%ebp),%edx
  801732:	81 c2 70 2a 00 00    	add    $0x2a70,%edx
  801738:	50                   	push   %eax
  801739:	6a 0b                	push   $0xb
  80173b:	6a 28                	push   $0x28
  80173d:	52                   	push   %edx
  80173e:	e8 7e 36 00 00       	call   804dc1 <PAL_MKFReadChunk>
  801743:	83 c4 10             	add    $0x10,%esp
  801746:	c7 45 f4 00 00 00 00 	movl   $0x0,-0xc(%ebp)
  80174d:	eb 2a                	jmp    801779 <PAL_ReadGlobalGameData+0x3d8>
  80174f:	8b 45 f0             	mov    -0x10(%ebp),%eax
  801752:	8d 90 70 2a 00 00    	lea    0x2a70(%eax),%edx
  801758:	8b 45 f4             	mov    -0xc(%ebp),%eax
  80175b:	01 c0                	add    %eax,%eax
  80175d:	01 c2                	add    %eax,%edx
  80175f:	8b 45 f0             	mov    -0x10(%ebp),%eax
  801762:	8d 88 70 2a 00 00    	lea    0x2a70(%eax),%ecx
  801768:	8b 45 f4             	mov    -0xc(%ebp),%eax
  80176b:	01 c0                	add    %eax,%eax
  80176d:	01 c8                	add    %ecx,%eax
  80176f:	0f b7 00             	movzwl (%eax),%eax
  801772:	66 89 02             	mov    %ax,(%edx)
  801775:	83 45 f4 01          	addl   $0x1,-0xc(%ebp)
  801779:	83 7d f4 13          	cmpl   $0x13,-0xc(%ebp)
  80177d:	76 d0                	jbe    80174f <PAL_ReadGlobalGameData+0x3ae>
  80177f:	8b 83 a8 0f 01 00    	mov    0x10fa8(%ebx),%eax
  801785:	8b 40 0c             	mov    0xc(%eax),%eax
  801788:	8b 55 f0             	mov    -0x10(%ebp),%edx
  80178b:	81 c2 44 29 00 00    	add    $0x2944,%edx
  801791:	50                   	push   %eax
  801792:	6a 0d                	push   $0xd
  801794:	6a 64                	push   $0x64
  801796:	52                   	push   %edx
  801797:	e8 25 36 00 00       	call   804dc1 <PAL_MKFReadChunk>
  80179c:	83 c4 10             	add    $0x10,%esp
  80179f:	c7 45 f4 00 00 00 00 	movl   $0x0,-0xc(%ebp)
  8017a6:	eb 2a                	jmp    8017d2 <PAL_ReadGlobalGameData+0x431>
  8017a8:	8b 45 f0             	mov    -0x10(%ebp),%eax
  8017ab:	8d 90 44 29 00 00    	lea    0x2944(%eax),%edx
  8017b1:	8b 45 f4             	mov    -0xc(%ebp),%eax
  8017b4:	01 c0                	add    %eax,%eax
  8017b6:	01 c2                	add    %eax,%edx
  8017b8:	8b 45 f0             	mov    -0x10(%ebp),%eax
  8017bb:	8d 88 44 29 00 00    	lea    0x2944(%eax),%ecx
  8017c1:	8b 45 f4             	mov    -0xc(%ebp),%eax
  8017c4:	01 c0                	add    %eax,%eax
  8017c6:	01 c8                	add    %ecx,%eax
  8017c8:	0f b7 00             	movzwl (%eax),%eax
  8017cb:	66 89 02             	mov    %ax,(%edx)
  8017ce:	83 45 f4 01          	addl   $0x1,-0xc(%ebp)
  8017d2:	83 7d f4 31          	cmpl   $0x31,-0xc(%ebp)
  8017d6:	76 d0                	jbe    8017a8 <PAL_ReadGlobalGameData+0x407>
  8017d8:	8b 83 a8 0f 01 00    	mov    0x10fa8(%ebx),%eax
  8017de:	8b 40 0c             	mov    0xc(%eax),%eax
  8017e1:	8b 55 f0             	mov    -0x10(%ebp),%edx
  8017e4:	81 c2 a8 29 00 00    	add    $0x29a8,%edx
  8017ea:	50                   	push   %eax
  8017eb:	6a 0e                	push   $0xe
  8017ed:	68 c8 00 00 00       	push   $0xc8
  8017f2:	52                   	push   %edx
  8017f3:	e8 c9 35 00 00       	call   804dc1 <PAL_MKFReadChunk>
  8017f8:	83 c4 10             	add    $0x10,%esp
  8017fb:	c7 45 f4 00 00 00 00 	movl   $0x0,-0xc(%ebp)
  801802:	eb 2a                	jmp    80182e <PAL_ReadGlobalGameData+0x48d>
  801804:	8b 45 f0             	mov    -0x10(%ebp),%eax
  801807:	8d 90 a8 29 00 00    	lea    0x29a8(%eax),%edx
  80180d:	8b 45 f4             	mov    -0xc(%ebp),%eax
  801810:	01 c0                	add    %eax,%eax
  801812:	01 c2                	add    %eax,%edx
  801814:	8b 45 f0             	mov    -0x10(%ebp),%eax
  801817:	8d 88 a8 29 00 00    	lea    0x29a8(%eax),%ecx
  80181d:	8b 45 f4             	mov    -0xc(%ebp),%eax
  801820:	01 c0                	add    %eax,%eax
  801822:	01 c8                	add    %ecx,%eax
  801824:	0f b7 00             	movzwl (%eax),%eax
  801827:	66 89 02             	mov    %ax,(%edx)
  80182a:	83 45 f4 01          	addl   $0x1,-0xc(%ebp)
  80182e:	83 7d f4 63          	cmpl   $0x63,-0xc(%ebp)
  801832:	76 d0                	jbe    801804 <PAL_ReadGlobalGameData+0x463>
  801834:	90                   	nop
  801835:	8b 5d fc             	mov    -0x4(%ebp),%ebx
  801838:	c9                   	leave  
  801839:	c3                   	ret    

0080183a <PAL_InitGlobalGameData>:
  80183a:	55                   	push   %ebp
  80183b:	89 e5                	mov    %esp,%ebp
  80183d:	56                   	push   %esi
  80183e:	53                   	push   %ebx
  80183f:	83 ec 10             	sub    $0x10,%esp
  801842:	e8 3b ea ff ff       	call   800282 <__x86.get_pc_thunk.bx>
  801847:	81 c3 b9 97 04 00    	add    $0x497b9,%ebx
  80184d:	8b 83 a8 0f 01 00    	mov    0x10fa8(%ebx),%eax
  801853:	8b 40 20             	mov    0x20(%eax),%eax
  801856:	85 c0                	test   %eax,%eax
  801858:	0f 85 73 03 00 00    	jne    801bd1 <PAL_InitGlobalGameData+0x397>
  80185e:	8b 83 a8 0f 01 00    	mov    0x10fa8(%ebx),%eax
  801864:	8b 40 1c             	mov    0x1c(%eax),%eax
  801867:	83 ec 08             	sub    $0x8,%esp
  80186a:	50                   	push   %eax
  80186b:	6a 00                	push   $0x0
  80186d:	e8 b0 34 00 00       	call   804d22 <PAL_MKFGetChunkSize>
  801872:	83 c4 10             	add    $0x10,%esp
  801875:	89 45 f4             	mov    %eax,-0xc(%ebp)
  801878:	8b b3 a8 0f 01 00    	mov    0x10fa8(%ebx),%esi
  80187e:	8b 45 f4             	mov    -0xc(%ebp),%eax
  801881:	83 ec 0c             	sub    $0xc,%esp
  801884:	50                   	push   %eax
  801885:	e8 a6 00 03 00       	call   831930 <malloc>
  80188a:	83 c4 10             	add    $0x10,%esp
  80188d:	89 46 20             	mov    %eax,0x20(%esi)
  801890:	8b 83 a8 0f 01 00    	mov    0x10fa8(%ebx),%eax
  801896:	8b 55 f4             	mov    -0xc(%ebp),%edx
  801899:	c1 ea 05             	shr    $0x5,%edx
  80189c:	89 50 24             	mov    %edx,0x24(%eax)
  80189f:	8b 83 a8 0f 01 00    	mov    0x10fa8(%ebx),%eax
  8018a5:	8b 40 20             	mov    0x20(%eax),%eax
  8018a8:	85 c0                	test   %eax,%eax
  8018aa:	75 12                	jne    8018be <PAL_InitGlobalGameData+0x84>
  8018ac:	83 ec 0c             	sub    $0xc,%esp
  8018af:	8d 83 d0 68 ff ff    	lea    -0x9730(%ebx),%eax
  8018b5:	50                   	push   %eax
  8018b6:	e8 b8 8d 00 00       	call   80a673 <TerminateOnError>
  8018bb:	83 c4 10             	add    $0x10,%esp
  8018be:	8b 83 a8 0f 01 00    	mov    0x10fa8(%ebx),%eax
  8018c4:	8b 40 1c             	mov    0x1c(%eax),%eax
  8018c7:	83 ec 08             	sub    $0x8,%esp
  8018ca:	50                   	push   %eax
  8018cb:	6a 04                	push   $0x4
  8018cd:	e8 50 34 00 00       	call   804d22 <PAL_MKFGetChunkSize>
  8018d2:	83 c4 10             	add    $0x10,%esp
  8018d5:	89 45 f4             	mov    %eax,-0xc(%ebp)
  8018d8:	8b b3 a8 0f 01 00    	mov    0x10fa8(%ebx),%esi
  8018de:	8b 45 f4             	mov    -0xc(%ebp),%eax
  8018e1:	83 ec 0c             	sub    $0xc,%esp
  8018e4:	50                   	push   %eax
  8018e5:	e8 46 00 03 00       	call   831930 <malloc>
  8018ea:	83 c4 10             	add    $0x10,%esp
  8018ed:	89 86 a8 25 00 00    	mov    %eax,0x25a8(%esi)
  8018f3:	8b 83 a8 0f 01 00    	mov    0x10fa8(%ebx),%eax
  8018f9:	8b 55 f4             	mov    -0xc(%ebp),%edx
  8018fc:	c1 ea 03             	shr    $0x3,%edx
  8018ff:	89 90 ac 25 00 00    	mov    %edx,0x25ac(%eax)
  801905:	8b 83 a8 0f 01 00    	mov    0x10fa8(%ebx),%eax
  80190b:	8b 80 a8 25 00 00    	mov    0x25a8(%eax),%eax
  801911:	85 c0                	test   %eax,%eax
  801913:	75 12                	jne    801927 <PAL_InitGlobalGameData+0xed>
  801915:	83 ec 0c             	sub    $0xc,%esp
  801918:	8d 83 d0 68 ff ff    	lea    -0x9730(%ebx),%eax
  80191e:	50                   	push   %eax
  80191f:	e8 4f 8d 00 00       	call   80a673 <TerminateOnError>
  801924:	83 c4 10             	add    $0x10,%esp
  801927:	8b 83 a8 0f 01 00    	mov    0x10fa8(%ebx),%eax
  80192d:	8b 40 0c             	mov    0xc(%eax),%eax
  801930:	83 ec 08             	sub    $0x8,%esp
  801933:	50                   	push   %eax
  801934:	6a 00                	push   $0x0
  801936:	e8 e7 33 00 00       	call   804d22 <PAL_MKFGetChunkSize>
  80193b:	83 c4 10             	add    $0x10,%esp
  80193e:	89 45 f4             	mov    %eax,-0xc(%ebp)
  801941:	8b b3 a8 0f 01 00    	mov    0x10fa8(%ebx),%esi
  801947:	8b 45 f4             	mov    -0xc(%ebp),%eax
  80194a:	83 ec 0c             	sub    $0xc,%esp
  80194d:	50                   	push   %eax
  80194e:	e8 dd ff 02 00       	call   831930 <malloc>
  801953:	83 c4 10             	add    $0x10,%esp
  801956:	89 86 b0 25 00 00    	mov    %eax,0x25b0(%esi)
  80195c:	8b 8b a8 0f 01 00    	mov    0x10fa8(%ebx),%ecx
  801962:	8b 45 f4             	mov    -0xc(%ebp),%eax
  801965:	ba 39 8e e3 38       	mov    $0x38e38e39,%edx
  80196a:	f7 e2                	mul    %edx
  80196c:	89 d0                	mov    %edx,%eax
  80196e:	c1 e8 02             	shr    $0x2,%eax
  801971:	89 81 b4 25 00 00    	mov    %eax,0x25b4(%ecx)
  801977:	8b 83 a8 0f 01 00    	mov    0x10fa8(%ebx),%eax
  80197d:	8b 80 b0 25 00 00    	mov    0x25b0(%eax),%eax
  801983:	85 c0                	test   %eax,%eax
  801985:	75 12                	jne    801999 <PAL_InitGlobalGameData+0x15f>
  801987:	83 ec 0c             	sub    $0xc,%esp
  80198a:	8d 83 d0 68 ff ff    	lea    -0x9730(%ebx),%eax
  801990:	50                   	push   %eax
  801991:	e8 dd 8c 00 00       	call   80a673 <TerminateOnError>
  801996:	83 c4 10             	add    $0x10,%esp
  801999:	8b 83 a8 0f 01 00    	mov    0x10fa8(%ebx),%eax
  80199f:	8b 40 0c             	mov    0xc(%eax),%eax
  8019a2:	83 ec 08             	sub    $0x8,%esp
  8019a5:	50                   	push   %eax
  8019a6:	6a 01                	push   $0x1
  8019a8:	e8 75 33 00 00       	call   804d22 <PAL_MKFGetChunkSize>
  8019ad:	83 c4 10             	add    $0x10,%esp
  8019b0:	89 45 f4             	mov    %eax,-0xc(%ebp)
  8019b3:	8b b3 a8 0f 01 00    	mov    0x10fa8(%ebx),%esi
  8019b9:	8b 45 f4             	mov    -0xc(%ebp),%eax
  8019bc:	83 ec 0c             	sub    $0xc,%esp
  8019bf:	50                   	push   %eax
  8019c0:	e8 6b ff 02 00       	call   831930 <malloc>
  8019c5:	83 c4 10             	add    $0x10,%esp
  8019c8:	89 86 b8 25 00 00    	mov    %eax,0x25b8(%esi)
  8019ce:	8b 8b a8 0f 01 00    	mov    0x10fa8(%ebx),%ecx
  8019d4:	8b 45 f4             	mov    -0xc(%ebp),%eax
  8019d7:	d1 e8                	shr    %eax
  8019d9:	ba eb a0 0e ea       	mov    $0xea0ea0eb,%edx
  8019de:	f7 e2                	mul    %edx
  8019e0:	89 d0                	mov    %edx,%eax
  8019e2:	c1 e8 05             	shr    $0x5,%eax
  8019e5:	89 81 bc 25 00 00    	mov    %eax,0x25bc(%ecx)
  8019eb:	8b 83 a8 0f 01 00    	mov    0x10fa8(%ebx),%eax
  8019f1:	8b 80 b8 25 00 00    	mov    0x25b8(%eax),%eax
  8019f7:	85 c0                	test   %eax,%eax
  8019f9:	75 12                	jne    801a0d <PAL_InitGlobalGameData+0x1d3>
  8019fb:	83 ec 0c             	sub    $0xc,%esp
  8019fe:	8d 83 d0 68 ff ff    	lea    -0x9730(%ebx),%eax
  801a04:	50                   	push   %eax
  801a05:	e8 69 8c 00 00       	call   80a673 <TerminateOnError>
  801a0a:	83 c4 10             	add    $0x10,%esp
  801a0d:	8b 83 a8 0f 01 00    	mov    0x10fa8(%ebx),%eax
  801a13:	8b 40 0c             	mov    0xc(%eax),%eax
  801a16:	83 ec 08             	sub    $0x8,%esp
  801a19:	50                   	push   %eax
  801a1a:	6a 02                	push   $0x2
  801a1c:	e8 01 33 00 00       	call   804d22 <PAL_MKFGetChunkSize>
  801a21:	83 c4 10             	add    $0x10,%esp
  801a24:	89 45 f4             	mov    %eax,-0xc(%ebp)
  801a27:	8b b3 a8 0f 01 00    	mov    0x10fa8(%ebx),%esi
  801a2d:	8b 45 f4             	mov    -0xc(%ebp),%eax
  801a30:	83 ec 0c             	sub    $0xc,%esp
  801a33:	50                   	push   %eax
  801a34:	e8 f7 fe 02 00       	call   831930 <malloc>
  801a39:	83 c4 10             	add    $0x10,%esp
  801a3c:	89 86 c0 25 00 00    	mov    %eax,0x25c0(%esi)
  801a42:	8b 8b a8 0f 01 00    	mov    0x10fa8(%ebx),%ecx
  801a48:	8b 45 f4             	mov    -0xc(%ebp),%eax
  801a4b:	ba cd cc cc cc       	mov    $0xcccccccd,%edx
  801a50:	f7 e2                	mul    %edx
  801a52:	89 d0                	mov    %edx,%eax
  801a54:	c1 e8 03             	shr    $0x3,%eax
  801a57:	89 81 c4 25 00 00    	mov    %eax,0x25c4(%ecx)
  801a5d:	8b 83 a8 0f 01 00    	mov    0x10fa8(%ebx),%eax
  801a63:	8b 80 c0 25 00 00    	mov    0x25c0(%eax),%eax
  801a69:	85 c0                	test   %eax,%eax
  801a6b:	75 12                	jne    801a7f <PAL_InitGlobalGameData+0x245>
  801a6d:	83 ec 0c             	sub    $0xc,%esp
  801a70:	8d 83 d0 68 ff ff    	lea    -0x9730(%ebx),%eax
  801a76:	50                   	push   %eax
  801a77:	e8 f7 8b 00 00       	call   80a673 <TerminateOnError>
  801a7c:	83 c4 10             	add    $0x10,%esp
  801a7f:	8b 83 a8 0f 01 00    	mov    0x10fa8(%ebx),%eax
  801a85:	8b 40 0c             	mov    0xc(%eax),%eax
  801a88:	83 ec 08             	sub    $0x8,%esp
  801a8b:	50                   	push   %eax
  801a8c:	6a 04                	push   $0x4
  801a8e:	e8 8f 32 00 00       	call   804d22 <PAL_MKFGetChunkSize>
  801a93:	83 c4 10             	add    $0x10,%esp
  801a96:	89 45 f4             	mov    %eax,-0xc(%ebp)
  801a99:	8b b3 a8 0f 01 00    	mov    0x10fa8(%ebx),%esi
  801a9f:	8b 45 f4             	mov    -0xc(%ebp),%eax
  801aa2:	83 ec 0c             	sub    $0xc,%esp
  801aa5:	50                   	push   %eax
  801aa6:	e8 85 fe 02 00       	call   831930 <malloc>
  801aab:	83 c4 10             	add    $0x10,%esp
  801aae:	89 86 4c 29 00 00    	mov    %eax,0x294c(%esi)
  801ab4:	8b 83 a8 0f 01 00    	mov    0x10fa8(%ebx),%eax
  801aba:	8b 55 f4             	mov    -0xc(%ebp),%edx
  801abd:	c1 ea 05             	shr    $0x5,%edx
  801ac0:	89 90 50 29 00 00    	mov    %edx,0x2950(%eax)
  801ac6:	8b 83 a8 0f 01 00    	mov    0x10fa8(%ebx),%eax
  801acc:	8b 80 4c 29 00 00    	mov    0x294c(%eax),%eax
  801ad2:	85 c0                	test   %eax,%eax
  801ad4:	75 12                	jne    801ae8 <PAL_InitGlobalGameData+0x2ae>
  801ad6:	83 ec 0c             	sub    $0xc,%esp
  801ad9:	8d 83 d0 68 ff ff    	lea    -0x9730(%ebx),%eax
  801adf:	50                   	push   %eax
  801ae0:	e8 8e 8b 00 00       	call   80a673 <TerminateOnError>
  801ae5:	83 c4 10             	add    $0x10,%esp
  801ae8:	8b 83 a8 0f 01 00    	mov    0x10fa8(%ebx),%eax
  801aee:	8b 40 0c             	mov    0xc(%eax),%eax
  801af1:	83 ec 08             	sub    $0x8,%esp
  801af4:	50                   	push   %eax
  801af5:	6a 05                	push   $0x5
  801af7:	e8 26 32 00 00       	call   804d22 <PAL_MKFGetChunkSize>
  801afc:	83 c4 10             	add    $0x10,%esp
  801aff:	89 45 f4             	mov    %eax,-0xc(%ebp)
  801b02:	8b b3 a8 0f 01 00    	mov    0x10fa8(%ebx),%esi
  801b08:	8b 45 f4             	mov    -0xc(%ebp),%eax
  801b0b:	83 ec 0c             	sub    $0xc,%esp
  801b0e:	50                   	push   %eax
  801b0f:	e8 1c fe 02 00       	call   831930 <malloc>
  801b14:	83 c4 10             	add    $0x10,%esp
  801b17:	89 86 54 29 00 00    	mov    %eax,0x2954(%esi)
  801b1d:	8b 8b a8 0f 01 00    	mov    0x10fa8(%ebx),%ecx
  801b23:	8b 45 f4             	mov    -0xc(%ebp),%eax
  801b26:	ba ab aa aa aa       	mov    $0xaaaaaaab,%edx
  801b2b:	f7 e2                	mul    %edx
  801b2d:	89 d0                	mov    %edx,%eax
  801b2f:	c1 e8 03             	shr    $0x3,%eax
  801b32:	89 81 58 29 00 00    	mov    %eax,0x2958(%ecx)
  801b38:	8b 83 a8 0f 01 00    	mov    0x10fa8(%ebx),%eax
  801b3e:	8b 80 54 29 00 00    	mov    0x2954(%eax),%eax
  801b44:	85 c0                	test   %eax,%eax
  801b46:	75 12                	jne    801b5a <PAL_InitGlobalGameData+0x320>
  801b48:	83 ec 0c             	sub    $0xc,%esp
  801b4b:	8d 83 d0 68 ff ff    	lea    -0x9730(%ebx),%eax
  801b51:	50                   	push   %eax
  801b52:	e8 1c 8b 00 00       	call   80a673 <TerminateOnError>
  801b57:	83 c4 10             	add    $0x10,%esp
  801b5a:	8b 83 a8 0f 01 00    	mov    0x10fa8(%ebx),%eax
  801b60:	8b 40 0c             	mov    0xc(%eax),%eax
  801b63:	83 ec 08             	sub    $0x8,%esp
  801b66:	50                   	push   %eax
  801b67:	6a 06                	push   $0x6
  801b69:	e8 b4 31 00 00       	call   804d22 <PAL_MKFGetChunkSize>
  801b6e:	83 c4 10             	add    $0x10,%esp
  801b71:	89 45 f4             	mov    %eax,-0xc(%ebp)
  801b74:	8b b3 a8 0f 01 00    	mov    0x10fa8(%ebx),%esi
  801b7a:	8b 45 f4             	mov    -0xc(%ebp),%eax
  801b7d:	83 ec 0c             	sub    $0xc,%esp
  801b80:	50                   	push   %eax
  801b81:	e8 aa fd 02 00       	call   831930 <malloc>
  801b86:	83 c4 10             	add    $0x10,%esp
  801b89:	89 86 5c 29 00 00    	mov    %eax,0x295c(%esi)
  801b8f:	8b 8b a8 0f 01 00    	mov    0x10fa8(%ebx),%ecx
  801b95:	8b 45 f4             	mov    -0xc(%ebp),%eax
  801b98:	ba cd cc cc cc       	mov    $0xcccccccd,%edx
  801b9d:	f7 e2                	mul    %edx
  801b9f:	89 d0                	mov    %edx,%eax
  801ba1:	c1 e8 04             	shr    $0x4,%eax
  801ba4:	89 81 60 29 00 00    	mov    %eax,0x2960(%ecx)
  801baa:	8b 83 a8 0f 01 00    	mov    0x10fa8(%ebx),%eax
  801bb0:	8b 80 5c 29 00 00    	mov    0x295c(%eax),%eax
  801bb6:	85 c0                	test   %eax,%eax
  801bb8:	75 12                	jne    801bcc <PAL_InitGlobalGameData+0x392>
  801bba:	83 ec 0c             	sub    $0xc,%esp
  801bbd:	8d 83 d0 68 ff ff    	lea    -0x9730(%ebx),%eax
  801bc3:	50                   	push   %eax
  801bc4:	e8 aa 8a 00 00       	call   80a673 <TerminateOnError>
  801bc9:	83 c4 10             	add    $0x10,%esp
  801bcc:	e8 d0 f7 ff ff       	call   8013a1 <PAL_ReadGlobalGameData>
  801bd1:	90                   	nop
  801bd2:	8d 65 f8             	lea    -0x8(%ebp),%esp
  801bd5:	5b                   	pop    %ebx
  801bd6:	5e                   	pop    %esi
  801bd7:	5d                   	pop    %ebp
  801bd8:	c3                   	ret    

00801bd9 <PAL_LoadDefaultGame>:
  801bd9:	55                   	push   %ebp
  801bda:	89 e5                	mov    %esp,%ebp
  801bdc:	53                   	push   %ebx
  801bdd:	83 ec 14             	sub    $0x14,%esp
  801be0:	e8 9d e6 ff ff       	call   800282 <__x86.get_pc_thunk.bx>
  801be5:	81 c3 1b 94 04 00    	add    $0x4941b,%ebx
  801beb:	8b 83 a8 0f 01 00    	mov    0x10fa8(%ebx),%eax
  801bf1:	83 c0 20             	add    $0x20,%eax
  801bf4:	89 45 f0             	mov    %eax,-0x10(%ebp)
  801bf7:	8b 83 a8 0f 01 00    	mov    0x10fa8(%ebx),%eax
  801bfd:	8b 50 1c             	mov    0x1c(%eax),%edx
  801c00:	8b 45 f0             	mov    -0x10(%ebp),%eax
  801c03:	8b 40 04             	mov    0x4(%eax),%eax
  801c06:	c1 e0 05             	shl    $0x5,%eax
  801c09:	89 c1                	mov    %eax,%ecx
  801c0b:	8b 45 f0             	mov    -0x10(%ebp),%eax
  801c0e:	8b 00                	mov    (%eax),%eax
  801c10:	52                   	push   %edx
  801c11:	6a 00                	push   $0x0
  801c13:	51                   	push   %ecx
  801c14:	50                   	push   %eax
  801c15:	e8 a7 31 00 00       	call   804dc1 <PAL_MKFReadChunk>
  801c1a:	83 c4 10             	add    $0x10,%esp
  801c1d:	c7 45 f4 00 00 00 00 	movl   $0x0,-0xc(%ebp)
  801c24:	eb 22                	jmp    801c48 <PAL_LoadDefaultGame+0x6f>
  801c26:	8b 45 f0             	mov    -0x10(%ebp),%eax
  801c29:	8b 00                	mov    (%eax),%eax
  801c2b:	8b 55 f4             	mov    -0xc(%ebp),%edx
  801c2e:	01 d2                	add    %edx,%edx
  801c30:	01 c2                	add    %eax,%edx
  801c32:	8b 45 f0             	mov    -0x10(%ebp),%eax
  801c35:	8b 00                	mov    (%eax),%eax
  801c37:	8b 4d f4             	mov    -0xc(%ebp),%ecx
  801c3a:	01 c9                	add    %ecx,%ecx
  801c3c:	01 c8                	add    %ecx,%eax
  801c3e:	0f b7 00             	movzwl (%eax),%eax
  801c41:	66 89 02             	mov    %ax,(%edx)
  801c44:	83 45 f4 01          	addl   $0x1,-0xc(%ebp)
  801c48:	8b 45 f0             	mov    -0x10(%ebp),%eax
  801c4b:	8b 40 04             	mov    0x4(%eax),%eax
  801c4e:	c1 e0 05             	shl    $0x5,%eax
  801c51:	d1 e8                	shr    %eax
  801c53:	3b 45 f4             	cmp    -0xc(%ebp),%eax
  801c56:	77 ce                	ja     801c26 <PAL_LoadDefaultGame+0x4d>
  801c58:	8b 83 a8 0f 01 00    	mov    0x10fa8(%ebx),%eax
  801c5e:	8b 40 1c             	mov    0x1c(%eax),%eax
  801c61:	8b 55 f0             	mov    -0x10(%ebp),%edx
  801c64:	83 c2 08             	add    $0x8,%edx
  801c67:	50                   	push   %eax
  801c68:	6a 01                	push   $0x1
  801c6a:	68 60 09 00 00       	push   $0x960
  801c6f:	52                   	push   %edx
  801c70:	e8 4c 31 00 00       	call   804dc1 <PAL_MKFReadChunk>
  801c75:	83 c4 10             	add    $0x10,%esp
  801c78:	c7 45 f4 00 00 00 00 	movl   $0x0,-0xc(%ebp)
  801c7f:	eb 24                	jmp    801ca5 <PAL_LoadDefaultGame+0xcc>
  801c81:	8b 45 f0             	mov    -0x10(%ebp),%eax
  801c84:	8d 50 08             	lea    0x8(%eax),%edx
  801c87:	8b 45 f4             	mov    -0xc(%ebp),%eax
  801c8a:	01 c0                	add    %eax,%eax
  801c8c:	01 c2                	add    %eax,%edx
  801c8e:	8b 45 f0             	mov    -0x10(%ebp),%eax
  801c91:	8d 48 08             	lea    0x8(%eax),%ecx
  801c94:	8b 45 f4             	mov    -0xc(%ebp),%eax
  801c97:	01 c0                	add    %eax,%eax
  801c99:	01 c8                	add    %ecx,%eax
  801c9b:	0f b7 00             	movzwl (%eax),%eax
  801c9e:	66 89 02             	mov    %ax,(%edx)
  801ca1:	83 45 f4 01          	addl   $0x1,-0xc(%ebp)
  801ca5:	81 7d f4 af 04 00 00 	cmpl   $0x4af,-0xc(%ebp)
  801cac:	76 d3                	jbe    801c81 <PAL_LoadDefaultGame+0xa8>
  801cae:	8b 83 a8 0f 01 00    	mov    0x10fa8(%ebx),%eax
  801cb4:	8b 40 1c             	mov    0x1c(%eax),%eax
  801cb7:	8b 55 f0             	mov    -0x10(%ebp),%edx
  801cba:	81 c2 68 09 00 00    	add    $0x968,%edx
  801cc0:	50                   	push   %eax
  801cc1:	6a 02                	push   $0x2
  801cc3:	68 20 1c 00 00       	push   $0x1c20
  801cc8:	52                   	push   %edx
  801cc9:	e8 f3 30 00 00       	call   804dc1 <PAL_MKFReadChunk>
  801cce:	83 c4 10             	add    $0x10,%esp
  801cd1:	c7 45 f4 00 00 00 00 	movl   $0x0,-0xc(%ebp)
  801cd8:	eb 2a                	jmp    801d04 <PAL_LoadDefaultGame+0x12b>
  801cda:	8b 45 f0             	mov    -0x10(%ebp),%eax
  801cdd:	8d 90 68 09 00 00    	lea    0x968(%eax),%edx
  801ce3:	8b 45 f4             	mov    -0xc(%ebp),%eax
  801ce6:	01 c0                	add    %eax,%eax
  801ce8:	01 c2                	add    %eax,%edx
  801cea:	8b 45 f0             	mov    -0x10(%ebp),%eax
  801ced:	8d 88 68 09 00 00    	lea    0x968(%eax),%ecx
  801cf3:	8b 45 f4             	mov    -0xc(%ebp),%eax
  801cf6:	01 c0                	add    %eax,%eax
  801cf8:	01 c8                	add    %ecx,%eax
  801cfa:	0f b7 00             	movzwl (%eax),%eax
  801cfd:	66 89 02             	mov    %ax,(%edx)
  801d00:	83 45 f4 01          	addl   $0x1,-0xc(%ebp)
  801d04:	81 7d f4 0f 0e 00 00 	cmpl   $0xe0f,-0xc(%ebp)
  801d0b:	76 cd                	jbe    801cda <PAL_LoadDefaultGame+0x101>
  801d0d:	8b 83 a8 0f 01 00    	mov    0x10fa8(%ebx),%eax
  801d13:	8b 40 0c             	mov    0xc(%eax),%eax
  801d16:	8b 55 f0             	mov    -0x10(%ebp),%edx
  801d19:	81 c2 a8 25 00 00    	add    $0x25a8,%edx
  801d1f:	50                   	push   %eax
  801d20:	6a 03                	push   $0x3
  801d22:	68 84 03 00 00       	push   $0x384
  801d27:	52                   	push   %edx
  801d28:	e8 94 30 00 00       	call   804dc1 <PAL_MKFReadChunk>
  801d2d:	83 c4 10             	add    $0x10,%esp
  801d30:	c7 45 f4 00 00 00 00 	movl   $0x0,-0xc(%ebp)
  801d37:	eb 2a                	jmp    801d63 <PAL_LoadDefaultGame+0x18a>
  801d39:	8b 45 f0             	mov    -0x10(%ebp),%eax
  801d3c:	8d 90 a8 25 00 00    	lea    0x25a8(%eax),%edx
  801d42:	8b 45 f4             	mov    -0xc(%ebp),%eax
  801d45:	01 c0                	add    %eax,%eax
  801d47:	01 c2                	add    %eax,%edx
  801d49:	8b 45 f0             	mov    -0x10(%ebp),%eax
  801d4c:	8d 88 a8 25 00 00    	lea    0x25a8(%eax),%ecx
  801d52:	8b 45 f4             	mov    -0xc(%ebp),%eax
  801d55:	01 c0                	add    %eax,%eax
  801d57:	01 c8                	add    %ecx,%eax
  801d59:	0f b7 00             	movzwl (%eax),%eax
  801d5c:	66 89 02             	mov    %ax,(%edx)
  801d5f:	83 45 f4 01          	addl   $0x1,-0xc(%ebp)
  801d63:	81 7d f4 c1 01 00 00 	cmpl   $0x1c1,-0xc(%ebp)
  801d6a:	76 cd                	jbe    801d39 <PAL_LoadDefaultGame+0x160>
  801d6c:	8b 83 a8 0f 01 00    	mov    0x10fa8(%ebx),%eax
  801d72:	c7 80 68 44 00 00 00 	movl   $0x0,0x4468(%eax)
  801d79:	00 00 00 
  801d7c:	8b 83 a8 0f 01 00    	mov    0x10fa8(%ebx),%eax
  801d82:	66 c7 80 54 44 00 00 	movw   $0x0,0x4454(%eax)
  801d89:	00 00 
  801d8b:	8b 83 a8 0f 01 00    	mov    0x10fa8(%ebx),%eax
  801d91:	66 c7 80 4c 44 00 00 	movw   $0x0,0x444c(%eax)
  801d98:	00 00 
  801d9a:	8b 83 a8 0f 01 00    	mov    0x10fa8(%ebx),%eax
  801da0:	66 c7 80 4a 44 00 00 	movw   $0x1,0x444a(%eax)
  801da7:	01 00 
  801da9:	8b 83 a8 0f 01 00    	mov    0x10fa8(%ebx),%eax
  801daf:	66 c7 80 5a 44 00 00 	movw   $0x0,0x445a(%eax)
  801db6:	00 00 
  801db8:	8b 83 a8 0f 01 00    	mov    0x10fa8(%ebx),%eax
  801dbe:	c7 80 50 44 00 00 00 	movl   $0x0,0x4450(%eax)
  801dc5:	00 00 00 
  801dc8:	8b 83 a8 0f 01 00    	mov    0x10fa8(%ebx),%eax
  801dce:	66 c7 80 f6 43 00 00 	movw   $0x0,0x43f6(%eax)
  801dd5:	00 00 
  801dd7:	8b 83 a8 0f 01 00    	mov    0x10fa8(%ebx),%eax
  801ddd:	c7 80 ec 43 00 00 00 	movl   $0x0,0x43ec(%eax)
  801de4:	00 00 00 
  801de7:	8b 83 a8 0f 01 00    	mov    0x10fa8(%ebx),%eax
  801ded:	66 c7 80 f4 43 00 00 	movw   $0x0,0x43f4(%eax)
  801df4:	00 00 
  801df6:	8b 83 a8 0f 01 00    	mov    0x10fa8(%ebx),%eax
  801dfc:	66 c7 80 60 44 00 00 	movw   $0x1,0x4460(%eax)
  801e03:	01 00 
  801e05:	8b 83 a8 0f 01 00    	mov    0x10fa8(%ebx),%eax
  801e0b:	c6 80 e0 2a 00 00 02 	movb   $0x2,0x2ae0(%eax)
  801e12:	8b 83 a8 0f 01 00    	mov    0x10fa8(%ebx),%eax
  801e18:	05 2c 47 00 00       	add    $0x472c,%eax
  801e1d:	83 ec 04             	sub    $0x4,%esp
  801e20:	68 00 06 00 00       	push   $0x600
  801e25:	6a 00                	push   $0x0
  801e27:	50                   	push   %eax
  801e28:	e8 f0 03 03 00       	call   83221d <memset>
  801e2d:	83 c4 10             	add    $0x10,%esp
  801e30:	8b 83 a8 0f 01 00    	mov    0x10fa8(%ebx),%eax
  801e36:	05 ec 45 00 00       	add    $0x45ec,%eax
  801e3b:	83 ec 04             	sub    $0x4,%esp
  801e3e:	68 40 01 00 00       	push   $0x140
  801e43:	6a 00                	push   $0x0
  801e45:	50                   	push   %eax
  801e46:	e8 d2 03 03 00       	call   83221d <memset>
  801e4b:	83 c4 10             	add    $0x10,%esp
  801e4e:	8b 83 a8 0f 01 00    	mov    0x10fa8(%ebx),%eax
  801e54:	05 f8 43 00 00       	add    $0x43f8,%eax
  801e59:	83 ec 04             	sub    $0x4,%esp
  801e5c:	6a 32                	push   $0x32
  801e5e:	6a 00                	push   $0x0
  801e60:	50                   	push   %eax
  801e61:	e8 b7 03 03 00       	call   83221d <memset>
  801e66:	83 c4 10             	add    $0x10,%esp
  801e69:	8b 83 a8 0f 01 00    	mov    0x10fa8(%ebx),%eax
  801e6f:	05 2a 44 00 00       	add    $0x442a,%eax
  801e74:	83 ec 04             	sub    $0x4,%esp
  801e77:	6a 1e                	push   $0x1e
  801e79:	6a 00                	push   $0x0
  801e7b:	50                   	push   %eax
  801e7c:	e8 9c 03 03 00       	call   83221d <memset>
  801e81:	83 c4 10             	add    $0x10,%esp
  801e84:	8b 83 a8 0f 01 00    	mov    0x10fa8(%ebx),%eax
  801e8a:	05 6c 44 00 00       	add    $0x446c,%eax
  801e8f:	83 ec 04             	sub    $0x4,%esp
  801e92:	68 80 01 00 00       	push   $0x180
  801e97:	6a 00                	push   $0x0
  801e99:	50                   	push   %eax
  801e9a:	e8 7e 03 03 00       	call   83221d <memset>
  801e9f:	83 c4 10             	add    $0x10,%esp
  801ea2:	c7 45 f4 00 00 00 00 	movl   $0x0,-0xc(%ebp)
  801ea9:	e9 2c 01 00 00       	jmp    801fda <PAL_LoadDefaultGame+0x401>
  801eae:	8b 83 a8 0f 01 00    	mov    0x10fa8(%ebx),%eax
  801eb4:	8b 55 f0             	mov    -0x10(%ebp),%edx
  801eb7:	8b 4d f4             	mov    -0xc(%ebp),%ecx
  801eba:	81 c1 f0 12 00 00    	add    $0x12f0,%ecx
  801ec0:	0f b7 54 4a 10       	movzwl 0x10(%edx,%ecx,2),%edx
  801ec5:	8b 4d f4             	mov    -0xc(%ebp),%ecx
  801ec8:	81 c1 8c 08 00 00    	add    $0x88c,%ecx
  801ece:	66 89 54 c8 10       	mov    %dx,0x10(%eax,%ecx,8)
  801ed3:	8b 83 a8 0f 01 00    	mov    0x10fa8(%ebx),%eax
  801ed9:	8b 55 f0             	mov    -0x10(%ebp),%edx
  801edc:	8b 4d f4             	mov    -0xc(%ebp),%ecx
  801edf:	81 c1 f0 12 00 00    	add    $0x12f0,%ecx
  801ee5:	0f b7 54 4a 10       	movzwl 0x10(%edx,%ecx,2),%edx
  801eea:	8b 4d f4             	mov    -0xc(%ebp),%ecx
  801eed:	81 c1 92 08 00 00    	add    $0x892,%ecx
  801ef3:	66 89 54 c8 10       	mov    %dx,0x10(%eax,%ecx,8)
  801ef8:	8b 83 a8 0f 01 00    	mov    0x10fa8(%ebx),%eax
  801efe:	8b 55 f0             	mov    -0x10(%ebp),%edx
  801f01:	8b 4d f4             	mov    -0xc(%ebp),%ecx
  801f04:	81 c1 f0 12 00 00    	add    $0x12f0,%ecx
  801f0a:	0f b7 54 4a 10       	movzwl 0x10(%edx,%ecx,2),%edx
  801f0f:	8b 4d f4             	mov    -0xc(%ebp),%ecx
  801f12:	81 c1 98 08 00 00    	add    $0x898,%ecx
  801f18:	66 89 54 c8 10       	mov    %dx,0x10(%eax,%ecx,8)
  801f1d:	8b 83 a8 0f 01 00    	mov    0x10fa8(%ebx),%eax
  801f23:	8b 55 f0             	mov    -0x10(%ebp),%edx
  801f26:	8b 4d f4             	mov    -0xc(%ebp),%ecx
  801f29:	81 c1 f0 12 00 00    	add    $0x12f0,%ecx
  801f2f:	0f b7 54 4a 10       	movzwl 0x10(%edx,%ecx,2),%edx
  801f34:	8b 4d f4             	mov    -0xc(%ebp),%ecx
  801f37:	81 c1 9e 08 00 00    	add    $0x89e,%ecx
  801f3d:	66 89 54 c8 10       	mov    %dx,0x10(%eax,%ecx,8)
  801f42:	8b 83 a8 0f 01 00    	mov    0x10fa8(%ebx),%eax
  801f48:	8b 55 f0             	mov    -0x10(%ebp),%edx
  801f4b:	8b 4d f4             	mov    -0xc(%ebp),%ecx
  801f4e:	81 c1 f0 12 00 00    	add    $0x12f0,%ecx
  801f54:	0f b7 54 4a 10       	movzwl 0x10(%edx,%ecx,2),%edx
  801f59:	8b 4d f4             	mov    -0xc(%ebp),%ecx
  801f5c:	81 c1 a4 08 00 00    	add    $0x8a4,%ecx
  801f62:	66 89 54 c8 10       	mov    %dx,0x10(%eax,%ecx,8)
  801f67:	8b 83 a8 0f 01 00    	mov    0x10fa8(%ebx),%eax
  801f6d:	8b 55 f0             	mov    -0x10(%ebp),%edx
  801f70:	8b 4d f4             	mov    -0xc(%ebp),%ecx
  801f73:	81 c1 f0 12 00 00    	add    $0x12f0,%ecx
  801f79:	0f b7 54 4a 10       	movzwl 0x10(%edx,%ecx,2),%edx
  801f7e:	8b 4d f4             	mov    -0xc(%ebp),%ecx
  801f81:	81 c1 aa 08 00 00    	add    $0x8aa,%ecx
  801f87:	66 89 54 c8 10       	mov    %dx,0x10(%eax,%ecx,8)
  801f8c:	8b 83 a8 0f 01 00    	mov    0x10fa8(%ebx),%eax
  801f92:	8b 55 f0             	mov    -0x10(%ebp),%edx
  801f95:	8b 4d f4             	mov    -0xc(%ebp),%ecx
  801f98:	81 c1 f0 12 00 00    	add    $0x12f0,%ecx
  801f9e:	0f b7 54 4a 10       	movzwl 0x10(%edx,%ecx,2),%edx
  801fa3:	8b 4d f4             	mov    -0xc(%ebp),%ecx
  801fa6:	81 c1 b0 08 00 00    	add    $0x8b0,%ecx
  801fac:	66 89 54 c8 10       	mov    %dx,0x10(%eax,%ecx,8)
  801fb1:	8b 83 a8 0f 01 00    	mov    0x10fa8(%ebx),%eax
  801fb7:	8b 55 f0             	mov    -0x10(%ebp),%edx
  801fba:	8b 4d f4             	mov    -0xc(%ebp),%ecx
  801fbd:	81 c1 f0 12 00 00    	add    $0x12f0,%ecx
  801fc3:	0f b7 54 4a 10       	movzwl 0x10(%edx,%ecx,2),%edx
  801fc8:	8b 4d f4             	mov    -0xc(%ebp),%ecx
  801fcb:	81 c1 b6 08 00 00    	add    $0x8b6,%ecx
  801fd1:	66 89 54 c8 10       	mov    %dx,0x10(%eax,%ecx,8)
  801fd6:	83 45 f4 01          	addl   $0x1,-0xc(%ebp)
  801fda:	83 7d f4 05          	cmpl   $0x5,-0xc(%ebp)
  801fde:	0f 86 ca fe ff ff    	jbe    801eae <PAL_LoadDefaultGame+0x2d5>
  801fe4:	8b 83 a8 0f 01 00    	mov    0x10fa8(%ebx),%eax
  801fea:	c7 80 d0 2a 00 00 01 	movl   $0x1,0x2ad0(%eax)
  801ff1:	00 00 00 
  801ff4:	90                   	nop
  801ff5:	8b 5d fc             	mov    -0x4(%ebp),%ebx
  801ff8:	c9                   	leave  
  801ff9:	c3                   	ret    

00801ffa <PAL_LoadGame>:
  801ffa:	55                   	push   %ebp
  801ffb:	89 e5                	mov    %esp,%ebp
  801ffd:	57                   	push   %edi
  801ffe:	56                   	push   %esi
  801fff:	53                   	push   %ebx
  802000:	81 ec dc e1 02 00    	sub    $0x2e1dc,%esp
  802006:	e8 77 e2 ff ff       	call   800282 <__x86.get_pc_thunk.bx>
  80200b:	81 c3 f5 8f 04 00    	add    $0x48ff5,%ebx
  802011:	83 ec 08             	sub    $0x8,%esp
  802014:	8d 83 03 69 ff ff    	lea    -0x96fd(%ebx),%eax
  80201a:	50                   	push   %eax
  80201b:	ff 75 08             	pushl  0x8(%ebp)
  80201e:	e8 5d e9 02 00       	call   830980 <fopen>
  802023:	83 c4 10             	add    $0x10,%esp
  802026:	89 45 e0             	mov    %eax,-0x20(%ebp)
  802029:	83 7d e0 00          	cmpl   $0x0,-0x20(%ebp)
  80202d:	75 0a                	jne    802039 <PAL_LoadGame+0x3f>
  80202f:	b8 ff ff ff ff       	mov    $0xffffffff,%eax
  802034:	e9 57 03 00 00       	jmp    802390 <PAL_LoadGame+0x396>
  802039:	ff 75 e0             	pushl  -0x20(%ebp)
  80203c:	6a 01                	push   $0x1
  80203e:	68 c0 e1 02 00       	push   $0x2e1c0
  802043:	8d 85 20 1e fd ff    	lea    -0x2e1e0(%ebp),%eax
  802049:	50                   	push   %eax
  80204a:	e8 c1 eb 02 00       	call   830c10 <fread>
  80204f:	83 c4 10             	add    $0x10,%esp
  802052:	83 ec 0c             	sub    $0xc,%esp
  802055:	ff 75 e0             	pushl  -0x20(%ebp)
  802058:	e8 43 e0 02 00       	call   8300a0 <fclose>
  80205d:	83 c4 10             	add    $0x10,%esp
  802060:	c7 45 e4 00 00 00 00 	movl   $0x0,-0x1c(%ebp)
  802067:	eb 26                	jmp    80208f <PAL_LoadGame+0x95>
  802069:	8b 45 e4             	mov    -0x1c(%ebp),%eax
  80206c:	8d 14 00             	lea    (%eax,%eax,1),%edx
  80206f:	8d 85 20 1e fd ff    	lea    -0x2e1e0(%ebp),%eax
  802075:	01 c2                	add    %eax,%edx
  802077:	8b 45 e4             	mov    -0x1c(%ebp),%eax
  80207a:	8d 0c 00             	lea    (%eax,%eax,1),%ecx
  80207d:	8d 85 20 1e fd ff    	lea    -0x2e1e0(%ebp),%eax
  802083:	01 c8                	add    %ecx,%eax
  802085:	0f b7 00             	movzwl (%eax),%eax
  802088:	66 89 02             	mov    %ax,(%edx)
  80208b:	83 45 e4 01          	addl   $0x1,-0x1c(%ebp)
  80208f:	81 7d e4 df 70 01 00 	cmpl   $0x170df,-0x1c(%ebp)
  802096:	76 d1                	jbe    802069 <PAL_LoadGame+0x6f>
  802098:	8b 83 a8 0f 01 00    	mov    0x10fa8(%ebx),%eax
  80209e:	0f b7 95 24 1e fd ff 	movzwl -0x2e1dc(%ebp),%edx
  8020a5:	0f b7 d2             	movzwl %dx,%edx
  8020a8:	c1 e2 10             	shl    $0x10,%edx
  8020ab:	89 d1                	mov    %edx,%ecx
  8020ad:	0f b7 95 22 1e fd ff 	movzwl -0x2e1de(%ebp),%edx
  8020b4:	0f b7 d2             	movzwl %dx,%edx
  8020b7:	09 ca                	or     %ecx,%edx
  8020b9:	89 90 ec 43 00 00    	mov    %edx,0x43ec(%eax)
  8020bf:	8b 83 a8 0f 01 00    	mov    0x10fa8(%ebx),%eax
  8020c5:	0f b7 95 26 1e fd ff 	movzwl -0x2e1da(%ebp),%edx
  8020cc:	66 89 90 f6 43 00 00 	mov    %dx,0x43f6(%eax)
  8020d3:	8b 83 a8 0f 01 00    	mov    0x10fa8(%ebx),%eax
  8020d9:	0f b7 95 28 1e fd ff 	movzwl -0x2e1d8(%ebp),%edx
  8020e0:	66 89 90 4a 44 00 00 	mov    %dx,0x444a(%eax)
  8020e7:	8b 83 a8 0f 01 00    	mov    0x10fa8(%ebx),%eax
  8020ed:	0f b7 95 2a 1e fd ff 	movzwl -0x2e1d6(%ebp),%edx
  8020f4:	66 85 d2             	test   %dx,%dx
  8020f7:	0f 95 c2             	setne  %dl
  8020fa:	0f b6 d2             	movzbl %dl,%edx
  8020fd:	89 90 50 44 00 00    	mov    %edx,0x4450(%eax)
  802103:	8b 83 a8 0f 01 00    	mov    0x10fa8(%ebx),%eax
  802109:	0f b7 95 2c 1e fd ff 	movzwl -0x2e1d4(%ebp),%edx
  802110:	66 89 90 48 44 00 00 	mov    %dx,0x4448(%eax)
  802117:	8b 83 a8 0f 01 00    	mov    0x10fa8(%ebx),%eax
  80211d:	0f b7 95 2e 1e fd ff 	movzwl -0x2e1d2(%ebp),%edx
  802124:	66 89 90 54 44 00 00 	mov    %dx,0x4454(%eax)
  80212b:	8b 83 a8 0f 01 00    	mov    0x10fa8(%ebx),%eax
  802131:	0f b7 95 30 1e fd ff 	movzwl -0x2e1d0(%ebp),%edx
  802138:	66 89 90 56 44 00 00 	mov    %dx,0x4456(%eax)
  80213f:	8b 83 a8 0f 01 00    	mov    0x10fa8(%ebx),%eax
  802145:	0f b7 95 32 1e fd ff 	movzwl -0x2e1ce(%ebp),%edx
  80214c:	66 89 90 58 44 00 00 	mov    %dx,0x4458(%eax)
  802153:	8b 83 a8 0f 01 00    	mov    0x10fa8(%ebx),%eax
  802159:	0f b7 95 34 1e fd ff 	movzwl -0x2e1cc(%ebp),%edx
  802160:	66 89 90 5c 44 00 00 	mov    %dx,0x445c(%eax)
  802167:	8b 83 a8 0f 01 00    	mov    0x10fa8(%ebx),%eax
  80216d:	66 c7 80 5e 44 00 00 	movw   $0x0,0x445e(%eax)
  802174:	00 00 
  802176:	8b 83 a8 0f 01 00    	mov    0x10fa8(%ebx),%eax
  80217c:	0f b7 95 38 1e fd ff 	movzwl -0x2e1c8(%ebp),%edx
  802183:	66 89 90 5a 44 00 00 	mov    %dx,0x445a(%eax)
  80218a:	8b 83 a8 0f 01 00    	mov    0x10fa8(%ebx),%eax
  802190:	0f b7 95 3a 1e fd ff 	movzwl -0x2e1c6(%ebp),%edx
  802197:	66 89 90 f4 43 00 00 	mov    %dx,0x43f4(%eax)
  80219e:	8b 83 a8 0f 01 00    	mov    0x10fa8(%ebx),%eax
  8021a4:	0f b7 95 3c 1e fd ff 	movzwl -0x2e1c4(%ebp),%edx
  8021ab:	66 89 90 60 44 00 00 	mov    %dx,0x4460(%eax)
  8021b2:	8b 83 a8 0f 01 00    	mov    0x10fa8(%ebx),%eax
  8021b8:	0f b7 95 3e 1e fd ff 	movzwl -0x2e1c2(%ebp),%edx
  8021bf:	66 89 90 62 44 00 00 	mov    %dx,0x4462(%eax)
  8021c6:	8b 83 a8 0f 01 00    	mov    0x10fa8(%ebx),%eax
  8021cc:	0f b7 95 40 1e fd ff 	movzwl -0x2e1c0(%ebp),%edx
  8021d3:	66 89 90 64 44 00 00 	mov    %dx,0x4464(%eax)
  8021da:	8b 83 a8 0f 01 00    	mov    0x10fa8(%ebx),%eax
  8021e0:	8b 95 48 1e fd ff    	mov    -0x2e1b8(%ebp),%edx
  8021e6:	89 90 68 44 00 00    	mov    %edx,0x4468(%eax)
  8021ec:	8b 83 a8 0f 01 00    	mov    0x10fa8(%ebx),%eax
  8021f2:	0f b7 95 36 1e fd ff 	movzwl -0x2e1ca(%ebp),%edx
  8021f9:	88 90 e0 2a 00 00    	mov    %dl,0x2ae0(%eax)
  8021ff:	8b 83 a8 0f 01 00    	mov    0x10fa8(%ebx),%eax
  802205:	0f b6 80 e0 2a 00 00 	movzbl 0x2ae0(%eax),%eax
  80220c:	3c 05                	cmp    $0x5,%al
  80220e:	77 11                	ja     802221 <PAL_LoadGame+0x227>
  802210:	8b 83 a8 0f 01 00    	mov    0x10fa8(%ebx),%eax
  802216:	0f b6 80 e0 2a 00 00 	movzbl 0x2ae0(%eax),%eax
  80221d:	84 c0                	test   %al,%al
  80221f:	75 0d                	jne    80222e <PAL_LoadGame+0x234>
  802221:	8b 83 a8 0f 01 00    	mov    0x10fa8(%ebx),%eax
  802227:	c6 80 e0 2a 00 00 02 	movb   $0x2,0x2ae0(%eax)
  80222e:	8b 83 a8 0f 01 00    	mov    0x10fa8(%ebx),%eax
  802234:	05 f8 43 00 00       	add    $0x43f8,%eax
  802239:	83 ec 04             	sub    $0x4,%esp
  80223c:	6a 32                	push   $0x32
  80223e:	8d 95 20 1e fd ff    	lea    -0x2e1e0(%ebp),%edx
  802244:	83 c2 2c             	add    $0x2c,%edx
  802247:	52                   	push   %edx
  802248:	50                   	push   %eax
  802249:	e8 fa fe 02 00       	call   832148 <memcpy>
  80224e:	83 c4 10             	add    $0x10,%esp
  802251:	8b 83 a8 0f 01 00    	mov    0x10fa8(%ebx),%eax
  802257:	05 2a 44 00 00       	add    $0x442a,%eax
  80225c:	83 ec 04             	sub    $0x4,%esp
  80225f:	6a 1e                	push   $0x1e
  802261:	8d 95 20 1e fd ff    	lea    -0x2e1e0(%ebp),%edx
  802267:	83 c2 5e             	add    $0x5e,%edx
  80226a:	52                   	push   %edx
  80226b:	50                   	push   %eax
  80226c:	e8 d7 fe 02 00       	call   832148 <memcpy>
  802271:	83 c4 10             	add    $0x10,%esp
  802274:	8b 83 a8 0f 01 00    	mov    0x10fa8(%ebx),%eax
  80227a:	8d 90 6c 44 00 00    	lea    0x446c(%eax),%edx
  802280:	8d 85 9c 1e fd ff    	lea    -0x2e164(%ebp),%eax
  802286:	b9 60 00 00 00       	mov    $0x60,%ecx
  80228b:	89 d7                	mov    %edx,%edi
  80228d:	89 c6                	mov    %eax,%esi
  80228f:	f3 a5                	rep movsl %ds:(%esi),%es:(%edi)
  802291:	8b 83 a8 0f 01 00    	mov    0x10fa8(%ebx),%eax
  802297:	8d 90 c8 25 00 00    	lea    0x25c8(%eax),%edx
  80229d:	8d 85 1c 20 fd ff    	lea    -0x2dfe4(%ebp),%eax
  8022a3:	b9 e1 00 00 00       	mov    $0xe1,%ecx
  8022a8:	89 d7                	mov    %edx,%edi
  8022aa:	89 c6                	mov    %eax,%esi
  8022ac:	f3 a5                	rep movsl %ds:(%esi),%es:(%edi)
  8022ae:	8b 83 a8 0f 01 00    	mov    0x10fa8(%ebx),%eax
  8022b4:	05 ec 45 00 00       	add    $0x45ec,%eax
  8022b9:	83 ec 04             	sub    $0x4,%esp
  8022bc:	68 40 01 00 00       	push   $0x140
  8022c1:	6a 00                	push   $0x0
  8022c3:	50                   	push   %eax
  8022c4:	e8 54 ff 02 00       	call   83221d <memset>
  8022c9:	83 c4 10             	add    $0x10,%esp
  8022cc:	8b 83 a8 0f 01 00    	mov    0x10fa8(%ebx),%eax
  8022d2:	05 2c 47 00 00       	add    $0x472c,%eax
  8022d7:	83 ec 04             	sub    $0x4,%esp
  8022da:	68 00 06 00 00       	push   $0x600
  8022df:	8d 95 20 1e fd ff    	lea    -0x2e1e0(%ebp),%edx
  8022e5:	81 c2 c0 06 00 00    	add    $0x6c0,%edx
  8022eb:	52                   	push   %edx
  8022ec:	50                   	push   %eax
  8022ed:	e8 56 fe 02 00       	call   832148 <memcpy>
  8022f2:	83 c4 10             	add    $0x10,%esp
  8022f5:	8b 83 a8 0f 01 00    	mov    0x10fa8(%ebx),%eax
  8022fb:	83 c0 28             	add    $0x28,%eax
  8022fe:	83 ec 04             	sub    $0x4,%esp
  802301:	68 60 09 00 00       	push   $0x960
  802306:	8d 95 20 1e fd ff    	lea    -0x2e1e0(%ebp),%edx
  80230c:	81 c2 c0 0c 00 00    	add    $0xcc0,%edx
  802312:	52                   	push   %edx
  802313:	50                   	push   %eax
  802314:	e8 2f fe 02 00       	call   832148 <memcpy>
  802319:	83 c4 10             	add    $0x10,%esp
  80231c:	8b 83 a8 0f 01 00    	mov    0x10fa8(%ebx),%eax
  802322:	05 88 09 00 00       	add    $0x988,%eax
  802327:	83 ec 04             	sub    $0x4,%esp
  80232a:	68 20 1c 00 00       	push   $0x1c20
  80232f:	8d 95 20 1e fd ff    	lea    -0x2e1e0(%ebp),%edx
  802335:	81 c2 20 16 00 00    	add    $0x1620,%edx
  80233b:	52                   	push   %edx
  80233c:	50                   	push   %eax
  80233d:	e8 06 fe 02 00       	call   832148 <memcpy>
  802342:	83 c4 10             	add    $0x10,%esp
  802345:	8b 83 a8 0f 01 00    	mov    0x10fa8(%ebx),%eax
  80234b:	8b 40 24             	mov    0x24(%eax),%eax
  80234e:	c1 e0 05             	shl    $0x5,%eax
  802351:	89 c2                	mov    %eax,%edx
  802353:	8b 83 a8 0f 01 00    	mov    0x10fa8(%ebx),%eax
  802359:	8b 40 20             	mov    0x20(%eax),%eax
  80235c:	83 ec 04             	sub    $0x4,%esp
  80235f:	52                   	push   %edx
  802360:	8d 95 20 1e fd ff    	lea    -0x2e1e0(%ebp),%edx
  802366:	81 c2 40 32 00 00    	add    $0x3240,%edx
  80236c:	52                   	push   %edx
  80236d:	50                   	push   %eax
  80236e:	e8 d5 fd 02 00       	call   832148 <memcpy>
  802373:	83 c4 10             	add    $0x10,%esp
  802376:	8b 83 a8 0f 01 00    	mov    0x10fa8(%ebx),%eax
  80237c:	c7 80 d0 2a 00 00 00 	movl   $0x0,0x2ad0(%eax)
  802383:	00 00 00 
  802386:	e8 4b 07 00 00       	call   802ad6 <PAL_CompressInventory>
  80238b:	b8 00 00 00 00       	mov    $0x0,%eax
  802390:	8d 65 f4             	lea    -0xc(%ebp),%esp
  802393:	5b                   	pop    %ebx
  802394:	5e                   	pop    %esi
  802395:	5f                   	pop    %edi
  802396:	5d                   	pop    %ebp
  802397:	c3                   	ret    

00802398 <PAL_SaveGame>:
  802398:	55                   	push   %ebp
  802399:	89 e5                	mov    %esp,%ebp
  80239b:	57                   	push   %edi
  80239c:	56                   	push   %esi
  80239d:	53                   	push   %ebx
  80239e:	81 ec ec e1 02 00    	sub    $0x2e1ec,%esp
  8023a4:	e8 d9 de ff ff       	call   800282 <__x86.get_pc_thunk.bx>
  8023a9:	81 c3 57 8c 04 00    	add    $0x48c57,%ebx
  8023af:	8b 45 0c             	mov    0xc(%ebp),%eax
  8023b2:	66 89 85 14 1e fd ff 	mov    %ax,-0x2e1ec(%ebp)
  8023b9:	8b 83 a8 0f 01 00    	mov    0x10fa8(%ebx),%eax
  8023bf:	8b 80 ec 43 00 00    	mov    0x43ec(%eax),%eax
  8023c5:	66 89 85 22 1e fd ff 	mov    %ax,-0x2e1de(%ebp)
  8023cc:	8b 83 a8 0f 01 00    	mov    0x10fa8(%ebx),%eax
  8023d2:	8b 80 ec 43 00 00    	mov    0x43ec(%eax),%eax
  8023d8:	c1 e8 10             	shr    $0x10,%eax
  8023db:	66 89 85 24 1e fd ff 	mov    %ax,-0x2e1dc(%ebp)
  8023e2:	8b 83 a8 0f 01 00    	mov    0x10fa8(%ebx),%eax
  8023e8:	0f b7 80 f6 43 00 00 	movzwl 0x43f6(%eax),%eax
  8023ef:	66 89 85 26 1e fd ff 	mov    %ax,-0x2e1da(%ebp)
  8023f6:	8b 83 a8 0f 01 00    	mov    0x10fa8(%ebx),%eax
  8023fc:	0f b7 80 4a 44 00 00 	movzwl 0x444a(%eax),%eax
  802403:	66 89 85 28 1e fd ff 	mov    %ax,-0x2e1d8(%ebp)
  80240a:	8b 83 a8 0f 01 00    	mov    0x10fa8(%ebx),%eax
  802410:	8b 80 50 44 00 00    	mov    0x4450(%eax),%eax
  802416:	85 c0                	test   %eax,%eax
  802418:	74 07                	je     802421 <PAL_SaveGame+0x89>
  80241a:	b8 80 01 00 00       	mov    $0x180,%eax
  80241f:	eb 05                	jmp    802426 <PAL_SaveGame+0x8e>
  802421:	b8 00 00 00 00       	mov    $0x0,%eax
  802426:	66 89 85 2a 1e fd ff 	mov    %ax,-0x2e1d6(%ebp)
  80242d:	8b 83 a8 0f 01 00    	mov    0x10fa8(%ebx),%eax
  802433:	0f b7 80 48 44 00 00 	movzwl 0x4448(%eax),%eax
  80243a:	66 89 85 2c 1e fd ff 	mov    %ax,-0x2e1d4(%ebp)
  802441:	8b 83 a8 0f 01 00    	mov    0x10fa8(%ebx),%eax
  802447:	0f b7 80 54 44 00 00 	movzwl 0x4454(%eax),%eax
  80244e:	66 89 85 2e 1e fd ff 	mov    %ax,-0x2e1d2(%ebp)
  802455:	8b 83 a8 0f 01 00    	mov    0x10fa8(%ebx),%eax
  80245b:	0f b7 80 56 44 00 00 	movzwl 0x4456(%eax),%eax
  802462:	66 89 85 30 1e fd ff 	mov    %ax,-0x2e1d0(%ebp)
  802469:	8b 83 a8 0f 01 00    	mov    0x10fa8(%ebx),%eax
  80246f:	0f b7 80 58 44 00 00 	movzwl 0x4458(%eax),%eax
  802476:	66 89 85 32 1e fd ff 	mov    %ax,-0x2e1ce(%ebp)
  80247d:	8b 83 a8 0f 01 00    	mov    0x10fa8(%ebx),%eax
  802483:	0f b7 80 5c 44 00 00 	movzwl 0x445c(%eax),%eax
  80248a:	66 89 85 34 1e fd ff 	mov    %ax,-0x2e1cc(%ebp)
  802491:	8b 83 a8 0f 01 00    	mov    0x10fa8(%ebx),%eax
  802497:	0f b7 80 5a 44 00 00 	movzwl 0x445a(%eax),%eax
  80249e:	66 89 85 38 1e fd ff 	mov    %ax,-0x2e1c8(%ebp)
  8024a5:	8b 83 a8 0f 01 00    	mov    0x10fa8(%ebx),%eax
  8024ab:	0f b7 80 f4 43 00 00 	movzwl 0x43f4(%eax),%eax
  8024b2:	66 89 85 3a 1e fd ff 	mov    %ax,-0x2e1c6(%ebp)
  8024b9:	8b 83 a8 0f 01 00    	mov    0x10fa8(%ebx),%eax
  8024bf:	0f b7 80 60 44 00 00 	movzwl 0x4460(%eax),%eax
  8024c6:	66 89 85 3c 1e fd ff 	mov    %ax,-0x2e1c4(%ebp)
  8024cd:	8b 83 a8 0f 01 00    	mov    0x10fa8(%ebx),%eax
  8024d3:	0f b7 80 62 44 00 00 	movzwl 0x4462(%eax),%eax
  8024da:	66 89 85 3e 1e fd ff 	mov    %ax,-0x2e1c2(%ebp)
  8024e1:	8b 83 a8 0f 01 00    	mov    0x10fa8(%ebx),%eax
  8024e7:	0f b7 80 64 44 00 00 	movzwl 0x4464(%eax),%eax
  8024ee:	66 89 85 40 1e fd ff 	mov    %ax,-0x2e1c0(%ebp)
  8024f5:	8b 83 a8 0f 01 00    	mov    0x10fa8(%ebx),%eax
  8024fb:	8b 80 68 44 00 00    	mov    0x4468(%eax),%eax
  802501:	89 85 48 1e fd ff    	mov    %eax,-0x2e1b8(%ebp)
  802507:	8b 83 a8 0f 01 00    	mov    0x10fa8(%ebx),%eax
  80250d:	0f b6 80 e0 2a 00 00 	movzbl 0x2ae0(%eax),%eax
  802514:	0f b6 c0             	movzbl %al,%eax
  802517:	66 89 85 36 1e fd ff 	mov    %ax,-0x2e1ca(%ebp)
  80251e:	8b 83 a8 0f 01 00    	mov    0x10fa8(%ebx),%eax
  802524:	05 f8 43 00 00       	add    $0x43f8,%eax
  802529:	83 ec 04             	sub    $0x4,%esp
  80252c:	6a 32                	push   $0x32
  80252e:	50                   	push   %eax
  80252f:	8d 85 20 1e fd ff    	lea    -0x2e1e0(%ebp),%eax
  802535:	83 c0 2c             	add    $0x2c,%eax
  802538:	50                   	push   %eax
  802539:	e8 0a fc 02 00       	call   832148 <memcpy>
  80253e:	83 c4 10             	add    $0x10,%esp
  802541:	8b 83 a8 0f 01 00    	mov    0x10fa8(%ebx),%eax
  802547:	05 2a 44 00 00       	add    $0x442a,%eax
  80254c:	83 ec 04             	sub    $0x4,%esp
  80254f:	6a 1e                	push   $0x1e
  802551:	50                   	push   %eax
  802552:	8d 85 20 1e fd ff    	lea    -0x2e1e0(%ebp),%eax
  802558:	83 c0 5e             	add    $0x5e,%eax
  80255b:	50                   	push   %eax
  80255c:	e8 e7 fb 02 00       	call   832148 <memcpy>
  802561:	83 c4 10             	add    $0x10,%esp
  802564:	8b 93 a8 0f 01 00    	mov    0x10fa8(%ebx),%edx
  80256a:	8d 85 9c 1e fd ff    	lea    -0x2e164(%ebp),%eax
  802570:	81 c2 6c 44 00 00    	add    $0x446c,%edx
  802576:	b9 60 00 00 00       	mov    $0x60,%ecx
  80257b:	89 c7                	mov    %eax,%edi
  80257d:	89 d6                	mov    %edx,%esi
  80257f:	f3 a5                	rep movsl %ds:(%esi),%es:(%edi)
  802581:	8b 93 a8 0f 01 00    	mov    0x10fa8(%ebx),%edx
  802587:	8d 85 1c 20 fd ff    	lea    -0x2dfe4(%ebp),%eax
  80258d:	81 c2 c8 25 00 00    	add    $0x25c8,%edx
  802593:	b9 e1 00 00 00       	mov    $0xe1,%ecx
  802598:	89 c7                	mov    %eax,%edi
  80259a:	89 d6                	mov    %edx,%esi
  80259c:	f3 a5                	rep movsl %ds:(%esi),%es:(%edi)
  80259e:	8b 83 a8 0f 01 00    	mov    0x10fa8(%ebx),%eax
  8025a4:	05 ec 45 00 00       	add    $0x45ec,%eax
  8025a9:	83 ec 04             	sub    $0x4,%esp
  8025ac:	68 40 01 00 00       	push   $0x140
  8025b1:	50                   	push   %eax
  8025b2:	8d 85 20 1e fd ff    	lea    -0x2e1e0(%ebp),%eax
  8025b8:	05 80 05 00 00       	add    $0x580,%eax
  8025bd:	50                   	push   %eax
  8025be:	e8 85 fb 02 00       	call   832148 <memcpy>
  8025c3:	83 c4 10             	add    $0x10,%esp
  8025c6:	8b 83 a8 0f 01 00    	mov    0x10fa8(%ebx),%eax
  8025cc:	05 2c 47 00 00       	add    $0x472c,%eax
  8025d1:	83 ec 04             	sub    $0x4,%esp
  8025d4:	68 00 06 00 00       	push   $0x600
  8025d9:	50                   	push   %eax
  8025da:	8d 85 20 1e fd ff    	lea    -0x2e1e0(%ebp),%eax
  8025e0:	05 c0 06 00 00       	add    $0x6c0,%eax
  8025e5:	50                   	push   %eax
  8025e6:	e8 5d fb 02 00       	call   832148 <memcpy>
  8025eb:	83 c4 10             	add    $0x10,%esp
  8025ee:	8b 83 a8 0f 01 00    	mov    0x10fa8(%ebx),%eax
  8025f4:	83 c0 28             	add    $0x28,%eax
  8025f7:	83 ec 04             	sub    $0x4,%esp
  8025fa:	68 60 09 00 00       	push   $0x960
  8025ff:	50                   	push   %eax
  802600:	8d 85 20 1e fd ff    	lea    -0x2e1e0(%ebp),%eax
  802606:	05 c0 0c 00 00       	add    $0xcc0,%eax
  80260b:	50                   	push   %eax
  80260c:	e8 37 fb 02 00       	call   832148 <memcpy>
  802611:	83 c4 10             	add    $0x10,%esp
  802614:	8b 83 a8 0f 01 00    	mov    0x10fa8(%ebx),%eax
  80261a:	05 88 09 00 00       	add    $0x988,%eax
  80261f:	83 ec 04             	sub    $0x4,%esp
  802622:	68 20 1c 00 00       	push   $0x1c20
  802627:	50                   	push   %eax
  802628:	8d 85 20 1e fd ff    	lea    -0x2e1e0(%ebp),%eax
  80262e:	05 20 16 00 00       	add    $0x1620,%eax
  802633:	50                   	push   %eax
  802634:	e8 0f fb 02 00       	call   832148 <memcpy>
  802639:	83 c4 10             	add    $0x10,%esp
  80263c:	8b 83 a8 0f 01 00    	mov    0x10fa8(%ebx),%eax
  802642:	8b 40 24             	mov    0x24(%eax),%eax
  802645:	c1 e0 05             	shl    $0x5,%eax
  802648:	89 c2                	mov    %eax,%edx
  80264a:	8b 83 a8 0f 01 00    	mov    0x10fa8(%ebx),%eax
  802650:	8b 40 20             	mov    0x20(%eax),%eax
  802653:	83 ec 04             	sub    $0x4,%esp
  802656:	52                   	push   %edx
  802657:	50                   	push   %eax
  802658:	8d 85 20 1e fd ff    	lea    -0x2e1e0(%ebp),%eax
  80265e:	05 40 32 00 00       	add    $0x3240,%eax
  802663:	50                   	push   %eax
  802664:	e8 df fa 02 00       	call   832148 <memcpy>
  802669:	83 c4 10             	add    $0x10,%esp
  80266c:	0f b7 85 14 1e fd ff 	movzwl -0x2e1ec(%ebp),%eax
  802673:	66 89 85 20 1e fd ff 	mov    %ax,-0x2e1e0(%ebp)
  80267a:	c7 45 e4 00 00 00 00 	movl   $0x0,-0x1c(%ebp)
  802681:	eb 26                	jmp    8026a9 <PAL_SaveGame+0x311>
  802683:	8b 45 e4             	mov    -0x1c(%ebp),%eax
  802686:	8d 14 00             	lea    (%eax,%eax,1),%edx
  802689:	8d 85 20 1e fd ff    	lea    -0x2e1e0(%ebp),%eax
  80268f:	01 c2                	add    %eax,%edx
  802691:	8b 45 e4             	mov    -0x1c(%ebp),%eax
  802694:	8d 0c 00             	lea    (%eax,%eax,1),%ecx
  802697:	8d 85 20 1e fd ff    	lea    -0x2e1e0(%ebp),%eax
  80269d:	01 c8                	add    %ecx,%eax
  80269f:	0f b7 00             	movzwl (%eax),%eax
  8026a2:	66 89 02             	mov    %ax,(%edx)
  8026a5:	83 45 e4 01          	addl   $0x1,-0x1c(%ebp)
  8026a9:	81 7d e4 df 70 01 00 	cmpl   $0x170df,-0x1c(%ebp)
  8026b0:	76 d1                	jbe    802683 <PAL_SaveGame+0x2eb>
  8026b2:	8b 85 48 1e fd ff    	mov    -0x2e1b8(%ebp),%eax
  8026b8:	c1 c0 10             	rol    $0x10,%eax
  8026bb:	89 85 48 1e fd ff    	mov    %eax,-0x2e1b8(%ebp)
  8026c1:	83 ec 08             	sub    $0x8,%esp
  8026c4:	8d 83 06 69 ff ff    	lea    -0x96fa(%ebx),%eax
  8026ca:	50                   	push   %eax
  8026cb:	ff 75 08             	pushl  0x8(%ebp)
  8026ce:	e8 ad e2 02 00       	call   830980 <fopen>
  8026d3:	83 c4 10             	add    $0x10,%esp
  8026d6:	89 45 e0             	mov    %eax,-0x20(%ebp)
  8026d9:	83 7d e0 00          	cmpl   $0x0,-0x20(%ebp)
  8026dd:	74 48                	je     802727 <PAL_SaveGame+0x38f>
  8026df:	8b 83 a8 0f 01 00    	mov    0x10fa8(%ebx),%eax
  8026e5:	8b 40 1c             	mov    0x1c(%eax),%eax
  8026e8:	83 ec 08             	sub    $0x8,%esp
  8026eb:	50                   	push   %eax
  8026ec:	6a 00                	push   $0x0
  8026ee:	e8 2f 26 00 00       	call   804d22 <PAL_MKFGetChunkSize>
  8026f3:	83 c4 10             	add    $0x10,%esp
  8026f6:	89 45 e4             	mov    %eax,-0x1c(%ebp)
  8026f9:	81 45 e4 40 32 00 00 	addl   $0x3240,-0x1c(%ebp)
  802700:	ff 75 e0             	pushl  -0x20(%ebp)
  802703:	6a 01                	push   $0x1
  802705:	ff 75 e4             	pushl  -0x1c(%ebp)
  802708:	8d 85 20 1e fd ff    	lea    -0x2e1e0(%ebp),%eax
  80270e:	50                   	push   %eax
  80270f:	e8 8c f0 02 00       	call   8317a0 <fwrite>
  802714:	83 c4 10             	add    $0x10,%esp
  802717:	83 ec 0c             	sub    $0xc,%esp
  80271a:	ff 75 e0             	pushl  -0x20(%ebp)
  80271d:	e8 7e d9 02 00       	call   8300a0 <fclose>
  802722:	83 c4 10             	add    $0x10,%esp
  802725:	eb 01                	jmp    802728 <PAL_SaveGame+0x390>
  802727:	90                   	nop
  802728:	8d 65 f4             	lea    -0xc(%ebp),%esp
  80272b:	5b                   	pop    %ebx
  80272c:	5e                   	pop    %esi
  80272d:	5f                   	pop    %edi
  80272e:	5d                   	pop    %ebp
  80272f:	c3                   	ret    

00802730 <PAL_InitGameData>:
  802730:	55                   	push   %ebp
  802731:	89 e5                	mov    %esp,%ebp
  802733:	53                   	push   %ebx
  802734:	83 ec 04             	sub    $0x4,%esp
  802737:	e8 46 db ff ff       	call   800282 <__x86.get_pc_thunk.bx>
  80273c:	81 c3 c4 88 04 00    	add    $0x488c4,%ebx
  802742:	e8 f3 f0 ff ff       	call   80183a <PAL_InitGlobalGameData>
  802747:	8b 83 a8 0f 01 00    	mov    0x10fa8(%ebx),%eax
  80274d:	8b 55 08             	mov    0x8(%ebp),%edx
  802750:	88 90 b8 2a 00 00    	mov    %dl,0x2ab8(%eax)
  802756:	83 7d 08 00          	cmpl   $0x0,0x8(%ebp)
  80275a:	74 30                	je     80278c <PAL_InitGameData+0x5c>
  80275c:	8d 83 09 69 ff ff    	lea    -0x96f7(%ebx),%eax
  802762:	50                   	push   %eax
  802763:	ff 75 08             	pushl  0x8(%ebp)
  802766:	8d 83 c8 68 ff ff    	lea    -0x9738(%ebx),%eax
  80276c:	50                   	push   %eax
  80276d:	8d 83 0e 69 ff ff    	lea    -0x96f2(%ebx),%eax
  802773:	50                   	push   %eax
  802774:	e8 30 7d 00 00       	call   80a4a9 <va>
  802779:	83 c4 10             	add    $0x10,%esp
  80277c:	83 ec 0c             	sub    $0xc,%esp
  80277f:	50                   	push   %eax
  802780:	e8 75 f8 ff ff       	call   801ffa <PAL_LoadGame>
  802785:	83 c4 10             	add    $0x10,%esp
  802788:	85 c0                	test   %eax,%eax
  80278a:	74 05                	je     802791 <PAL_InitGameData+0x61>
  80278c:	e8 48 f4 ff ff       	call   801bd9 <PAL_LoadDefaultGame>
  802791:	8b 83 a8 0f 01 00    	mov    0x10fa8(%ebx),%eax
  802797:	c7 80 cc 2a 00 00 01 	movl   $0x1,0x2acc(%eax)
  80279e:	00 00 00 
  8027a1:	8b 83 a8 0f 01 00    	mov    0x10fa8(%ebx),%eax
  8027a7:	c7 80 d4 2a 00 00 00 	movl   $0x0,0x2ad4(%eax)
  8027ae:	00 00 00 
  8027b1:	8b 83 a8 0f 01 00    	mov    0x10fa8(%ebx),%eax
  8027b7:	c7 80 c4 2a 00 00 00 	movl   $0x0,0x2ac4(%eax)
  8027be:	00 00 00 
  8027c1:	8b 83 a8 0f 01 00    	mov    0x10fa8(%ebx),%eax
  8027c7:	c7 80 d8 2a 00 00 00 	movl   $0x0,0x2ad8(%eax)
  8027ce:	00 00 00 
  8027d1:	8b 83 a8 0f 01 00    	mov    0x10fa8(%ebx),%eax
  8027d7:	05 80 43 00 00       	add    $0x4380,%eax
  8027dc:	83 ec 04             	sub    $0x4,%esp
  8027df:	6a 6c                	push   $0x6c
  8027e1:	6a 00                	push   $0x0
  8027e3:	50                   	push   %eax
  8027e4:	e8 34 fa 02 00       	call   83221d <memset>
  8027e9:	83 c4 10             	add    $0x10,%esp
  8027ec:	e8 e8 05 00 00       	call   802dd9 <PAL_UpdateEquipments>
  8027f1:	90                   	nop
  8027f2:	8b 5d fc             	mov    -0x4(%ebp),%ebx
  8027f5:	c9                   	leave  
  8027f6:	c3                   	ret    

008027f7 <PAL_AddItemToInventory>:
  8027f7:	55                   	push   %ebp
  8027f8:	89 e5                	mov    %esp,%ebp
  8027fa:	56                   	push   %esi
  8027fb:	53                   	push   %ebx
  8027fc:	83 ec 14             	sub    $0x14,%esp
  8027ff:	e8 7a da ff ff       	call   80027e <__x86.get_pc_thunk.ax>
  802804:	05 fc 87 04 00       	add    $0x487fc,%eax
  802809:	8b 55 08             	mov    0x8(%ebp),%edx
  80280c:	66 89 55 e4          	mov    %dx,-0x1c(%ebp)
  802810:	66 83 7d e4 00       	cmpw   $0x0,-0x1c(%ebp)
  802815:	75 0a                	jne    802821 <PAL_AddItemToInventory+0x2a>
  802817:	b8 00 00 00 00       	mov    $0x0,%eax
  80281c:	e9 10 02 00 00       	jmp    802a31 <PAL_AddItemToInventory+0x23a>
  802821:	83 7d 0c 00          	cmpl   $0x0,0xc(%ebp)
  802825:	75 07                	jne    80282e <PAL_AddItemToInventory+0x37>
  802827:	c7 45 0c 01 00 00 00 	movl   $0x1,0xc(%ebp)
  80282e:	c7 45 f4 00 00 00 00 	movl   $0x0,-0xc(%ebp)
  802835:	c7 45 f0 00 00 00 00 	movl   $0x0,-0x10(%ebp)
  80283c:	eb 50                	jmp    80288e <PAL_AddItemToInventory+0x97>
  80283e:	8b 98 a8 0f 01 00    	mov    0x10fa8(%eax),%ebx
  802844:	8b 4d f4             	mov    -0xc(%ebp),%ecx
  802847:	89 ca                	mov    %ecx,%edx
  802849:	01 d2                	add    %edx,%edx
  80284b:	01 ca                	add    %ecx,%edx
  80284d:	01 d2                	add    %edx,%edx
  80284f:	01 da                	add    %ebx,%edx
  802851:	81 c2 2c 47 00 00    	add    $0x472c,%edx
  802857:	0f b7 12             	movzwl (%edx),%edx
  80285a:	66 3b 55 e4          	cmp    -0x1c(%ebp),%dx
  80285e:	75 09                	jne    802869 <PAL_AddItemToInventory+0x72>
  802860:	c7 45 f0 01 00 00 00 	movl   $0x1,-0x10(%ebp)
  802867:	eb 31                	jmp    80289a <PAL_AddItemToInventory+0xa3>
  802869:	8b 98 a8 0f 01 00    	mov    0x10fa8(%eax),%ebx
  80286f:	8b 4d f4             	mov    -0xc(%ebp),%ecx
  802872:	89 ca                	mov    %ecx,%edx
  802874:	01 d2                	add    %edx,%edx
  802876:	01 ca                	add    %ecx,%edx
  802878:	01 d2                	add    %edx,%edx
  80287a:	01 da                	add    %ebx,%edx
  80287c:	81 c2 2c 47 00 00    	add    $0x472c,%edx
  802882:	0f b7 12             	movzwl (%edx),%edx
  802885:	66 85 d2             	test   %dx,%dx
  802888:	74 0f                	je     802899 <PAL_AddItemToInventory+0xa2>
  80288a:	83 45 f4 01          	addl   $0x1,-0xc(%ebp)
  80288e:	81 7d f4 ff 00 00 00 	cmpl   $0xff,-0xc(%ebp)
  802895:	7e a7                	jle    80283e <PAL_AddItemToInventory+0x47>
  802897:	eb 01                	jmp    80289a <PAL_AddItemToInventory+0xa3>
  802899:	90                   	nop
  80289a:	83 7d 0c 00          	cmpl   $0x0,0xc(%ebp)
  80289e:	0f 8e ef 00 00 00    	jle    802993 <PAL_AddItemToInventory+0x19c>
  8028a4:	81 7d f4 ff 00 00 00 	cmpl   $0xff,-0xc(%ebp)
  8028ab:	7e 0a                	jle    8028b7 <PAL_AddItemToInventory+0xc0>
  8028ad:	b8 00 00 00 00       	mov    $0x0,%eax
  8028b2:	e9 7a 01 00 00       	jmp    802a31 <PAL_AddItemToInventory+0x23a>
  8028b7:	83 7d f0 00          	cmpl   $0x0,-0x10(%ebp)
  8028bb:	74 7f                	je     80293c <PAL_AddItemToInventory+0x145>
  8028bd:	8b b0 a8 0f 01 00    	mov    0x10fa8(%eax),%esi
  8028c3:	8b 98 a8 0f 01 00    	mov    0x10fa8(%eax),%ebx
  8028c9:	8b 4d f4             	mov    -0xc(%ebp),%ecx
  8028cc:	89 ca                	mov    %ecx,%edx
  8028ce:	01 d2                	add    %edx,%edx
  8028d0:	01 ca                	add    %ecx,%edx
  8028d2:	01 d2                	add    %edx,%edx
  8028d4:	01 da                	add    %ebx,%edx
  8028d6:	81 c2 2e 47 00 00    	add    $0x472e,%edx
  8028dc:	0f b7 12             	movzwl (%edx),%edx
  8028df:	8b 4d 0c             	mov    0xc(%ebp),%ecx
  8028e2:	8d 1c 0a             	lea    (%edx,%ecx,1),%ebx
  8028e5:	8b 4d f4             	mov    -0xc(%ebp),%ecx
  8028e8:	89 ca                	mov    %ecx,%edx
  8028ea:	01 d2                	add    %edx,%edx
  8028ec:	01 ca                	add    %ecx,%edx
  8028ee:	01 d2                	add    %edx,%edx
  8028f0:	01 f2                	add    %esi,%edx
  8028f2:	81 c2 2e 47 00 00    	add    $0x472e,%edx
  8028f8:	66 89 1a             	mov    %bx,(%edx)
  8028fb:	8b 98 a8 0f 01 00    	mov    0x10fa8(%eax),%ebx
  802901:	8b 4d f4             	mov    -0xc(%ebp),%ecx
  802904:	89 ca                	mov    %ecx,%edx
  802906:	01 d2                	add    %edx,%edx
  802908:	01 ca                	add    %ecx,%edx
  80290a:	01 d2                	add    %edx,%edx
  80290c:	01 da                	add    %ebx,%edx
  80290e:	81 c2 2e 47 00 00    	add    $0x472e,%edx
  802914:	0f b7 12             	movzwl (%edx),%edx
  802917:	66 83 fa 63          	cmp    $0x63,%dx
  80291b:	76 6c                	jbe    802989 <PAL_AddItemToInventory+0x192>
  80291d:	8b 88 a8 0f 01 00    	mov    0x10fa8(%eax),%ecx
  802923:	8b 55 f4             	mov    -0xc(%ebp),%edx
  802926:	89 d0                	mov    %edx,%eax
  802928:	01 c0                	add    %eax,%eax
  80292a:	01 d0                	add    %edx,%eax
  80292c:	01 c0                	add    %eax,%eax
  80292e:	01 c8                	add    %ecx,%eax
  802930:	05 2e 47 00 00       	add    $0x472e,%eax
  802935:	66 c7 00 63 00       	movw   $0x63,(%eax)
  80293a:	eb 4d                	jmp    802989 <PAL_AddItemToInventory+0x192>
  80293c:	8b 98 a8 0f 01 00    	mov    0x10fa8(%eax),%ebx
  802942:	8b 4d f4             	mov    -0xc(%ebp),%ecx
  802945:	89 ca                	mov    %ecx,%edx
  802947:	01 d2                	add    %edx,%edx
  802949:	01 ca                	add    %ecx,%edx
  80294b:	01 d2                	add    %edx,%edx
  80294d:	01 da                	add    %ebx,%edx
  80294f:	8d 8a 2c 47 00 00    	lea    0x472c(%edx),%ecx
  802955:	0f b7 55 e4          	movzwl -0x1c(%ebp),%edx
  802959:	66 89 11             	mov    %dx,(%ecx)
  80295c:	83 7d 0c 63          	cmpl   $0x63,0xc(%ebp)
  802960:	7e 07                	jle    802969 <PAL_AddItemToInventory+0x172>
  802962:	c7 45 0c 63 00 00 00 	movl   $0x63,0xc(%ebp)
  802969:	8b 88 a8 0f 01 00    	mov    0x10fa8(%eax),%ecx
  80296f:	8b 45 0c             	mov    0xc(%ebp),%eax
  802972:	89 c3                	mov    %eax,%ebx
  802974:	8b 55 f4             	mov    -0xc(%ebp),%edx
  802977:	89 d0                	mov    %edx,%eax
  802979:	01 c0                	add    %eax,%eax
  80297b:	01 d0                	add    %edx,%eax
  80297d:	01 c0                	add    %eax,%eax
  80297f:	01 c8                	add    %ecx,%eax
  802981:	05 2e 47 00 00       	add    $0x472e,%eax
  802986:	66 89 18             	mov    %bx,(%eax)
  802989:	b8 01 00 00 00       	mov    $0x1,%eax
  80298e:	e9 9e 00 00 00       	jmp    802a31 <PAL_AddItemToInventory+0x23a>
  802993:	83 7d f0 00          	cmpl   $0x0,-0x10(%ebp)
  802997:	0f 84 8f 00 00 00    	je     802a2c <PAL_AddItemToInventory+0x235>
  80299d:	f7 5d 0c             	negl   0xc(%ebp)
  8029a0:	8b 98 a8 0f 01 00    	mov    0x10fa8(%eax),%ebx
  8029a6:	8b 4d f4             	mov    -0xc(%ebp),%ecx
  8029a9:	89 ca                	mov    %ecx,%edx
  8029ab:	01 d2                	add    %edx,%edx
  8029ad:	01 ca                	add    %ecx,%edx
  8029af:	01 d2                	add    %edx,%edx
  8029b1:	01 da                	add    %ebx,%edx
  8029b3:	81 c2 2e 47 00 00    	add    $0x472e,%edx
  8029b9:	0f b7 12             	movzwl (%edx),%edx
  8029bc:	0f b7 d2             	movzwl %dx,%edx
  8029bf:	3b 55 0c             	cmp    0xc(%ebp),%edx
  8029c2:	7d 24                	jge    8029e8 <PAL_AddItemToInventory+0x1f1>
  8029c4:	8b 88 a8 0f 01 00    	mov    0x10fa8(%eax),%ecx
  8029ca:	8b 55 f4             	mov    -0xc(%ebp),%edx
  8029cd:	89 d0                	mov    %edx,%eax
  8029cf:	01 c0                	add    %eax,%eax
  8029d1:	01 d0                	add    %edx,%eax
  8029d3:	01 c0                	add    %eax,%eax
  8029d5:	01 c8                	add    %ecx,%eax
  8029d7:	05 2e 47 00 00       	add    $0x472e,%eax
  8029dc:	66 c7 00 00 00       	movw   $0x0,(%eax)
  8029e1:	b8 00 00 00 00       	mov    $0x0,%eax
  8029e6:	eb 49                	jmp    802a31 <PAL_AddItemToInventory+0x23a>
  8029e8:	8b 98 a8 0f 01 00    	mov    0x10fa8(%eax),%ebx
  8029ee:	8b 88 a8 0f 01 00    	mov    0x10fa8(%eax),%ecx
  8029f4:	8b 55 f4             	mov    -0xc(%ebp),%edx
  8029f7:	89 d0                	mov    %edx,%eax
  8029f9:	01 c0                	add    %eax,%eax
  8029fb:	01 d0                	add    %edx,%eax
  8029fd:	01 c0                	add    %eax,%eax
  8029ff:	01 c8                	add    %ecx,%eax
  802a01:	05 2e 47 00 00       	add    $0x472e,%eax
  802a06:	0f b7 00             	movzwl (%eax),%eax
  802a09:	8b 55 0c             	mov    0xc(%ebp),%edx
  802a0c:	29 d0                	sub    %edx,%eax
  802a0e:	89 c1                	mov    %eax,%ecx
  802a10:	8b 55 f4             	mov    -0xc(%ebp),%edx
  802a13:	89 d0                	mov    %edx,%eax
  802a15:	01 c0                	add    %eax,%eax
  802a17:	01 d0                	add    %edx,%eax
  802a19:	01 c0                	add    %eax,%eax
  802a1b:	01 d8                	add    %ebx,%eax
  802a1d:	05 2e 47 00 00       	add    $0x472e,%eax
  802a22:	66 89 08             	mov    %cx,(%eax)
  802a25:	b8 01 00 00 00       	mov    $0x1,%eax
  802a2a:	eb 05                	jmp    802a31 <PAL_AddItemToInventory+0x23a>
  802a2c:	b8 00 00 00 00       	mov    $0x0,%eax
  802a31:	83 c4 14             	add    $0x14,%esp
  802a34:	5b                   	pop    %ebx
  802a35:	5e                   	pop    %esi
  802a36:	5d                   	pop    %ebp
  802a37:	c3                   	ret    

00802a38 <PAL_GetItemAmount>:
  802a38:	55                   	push   %ebp
  802a39:	89 e5                	mov    %esp,%ebp
  802a3b:	53                   	push   %ebx
  802a3c:	83 ec 14             	sub    $0x14,%esp
  802a3f:	e8 78 19 00 00       	call   8043bc <__x86.get_pc_thunk.dx>
  802a44:	81 c2 bc 85 04 00    	add    $0x485bc,%edx
  802a4a:	8b 45 08             	mov    0x8(%ebp),%eax
  802a4d:	66 89 45 e8          	mov    %ax,-0x18(%ebp)
  802a51:	c7 45 f8 00 00 00 00 	movl   $0x0,-0x8(%ebp)
  802a58:	eb 65                	jmp    802abf <PAL_GetItemAmount+0x87>
  802a5a:	8b 9a a8 0f 01 00    	mov    0x10fa8(%edx),%ebx
  802a60:	8b 4d f8             	mov    -0x8(%ebp),%ecx
  802a63:	89 c8                	mov    %ecx,%eax
  802a65:	01 c0                	add    %eax,%eax
  802a67:	01 c8                	add    %ecx,%eax
  802a69:	01 c0                	add    %eax,%eax
  802a6b:	01 d8                	add    %ebx,%eax
  802a6d:	05 2c 47 00 00       	add    $0x472c,%eax
  802a72:	0f b7 00             	movzwl (%eax),%eax
  802a75:	66 85 c0             	test   %ax,%ax
  802a78:	74 50                	je     802aca <PAL_GetItemAmount+0x92>
  802a7a:	8b 9a a8 0f 01 00    	mov    0x10fa8(%edx),%ebx
  802a80:	8b 4d f8             	mov    -0x8(%ebp),%ecx
  802a83:	89 c8                	mov    %ecx,%eax
  802a85:	01 c0                	add    %eax,%eax
  802a87:	01 c8                	add    %ecx,%eax
  802a89:	01 c0                	add    %eax,%eax
  802a8b:	01 d8                	add    %ebx,%eax
  802a8d:	05 2c 47 00 00       	add    $0x472c,%eax
  802a92:	0f b7 00             	movzwl (%eax),%eax
  802a95:	66 3b 45 e8          	cmp    -0x18(%ebp),%ax
  802a99:	75 20                	jne    802abb <PAL_GetItemAmount+0x83>
  802a9b:	8b 8a a8 0f 01 00    	mov    0x10fa8(%edx),%ecx
  802aa1:	8b 55 f8             	mov    -0x8(%ebp),%edx
  802aa4:	89 d0                	mov    %edx,%eax
  802aa6:	01 c0                	add    %eax,%eax
  802aa8:	01 d0                	add    %edx,%eax
  802aaa:	01 c0                	add    %eax,%eax
  802aac:	01 c8                	add    %ecx,%eax
  802aae:	05 2e 47 00 00       	add    $0x472e,%eax
  802ab3:	0f b7 00             	movzwl (%eax),%eax
  802ab6:	0f b7 c0             	movzwl %ax,%eax
  802ab9:	eb 15                	jmp    802ad0 <PAL_GetItemAmount+0x98>
  802abb:	83 45 f8 01          	addl   $0x1,-0x8(%ebp)
  802abf:	81 7d f8 ff 00 00 00 	cmpl   $0xff,-0x8(%ebp)
  802ac6:	7e 92                	jle    802a5a <PAL_GetItemAmount+0x22>
  802ac8:	eb 01                	jmp    802acb <PAL_GetItemAmount+0x93>
  802aca:	90                   	nop
  802acb:	b8 00 00 00 00       	mov    $0x0,%eax
  802ad0:	83 c4 14             	add    $0x14,%esp
  802ad3:	5b                   	pop    %ebx
  802ad4:	5d                   	pop    %ebp
  802ad5:	c3                   	ret    

00802ad6 <PAL_CompressInventory>:
  802ad6:	55                   	push   %ebp
  802ad7:	89 e5                	mov    %esp,%ebp
  802ad9:	56                   	push   %esi
  802ada:	53                   	push   %ebx
  802adb:	83 ec 10             	sub    $0x10,%esp
  802ade:	e8 9b d7 ff ff       	call   80027e <__x86.get_pc_thunk.ax>
  802ae3:	05 1d 85 04 00       	add    $0x4851d,%eax
  802ae8:	c7 45 f0 00 00 00 00 	movl   $0x0,-0x10(%ebp)
  802aef:	c7 45 f4 00 00 00 00 	movl   $0x0,-0xc(%ebp)
  802af6:	e9 88 00 00 00       	jmp    802b83 <PAL_CompressInventory+0xad>
  802afb:	8b 98 a8 0f 01 00    	mov    0x10fa8(%eax),%ebx
  802b01:	8b 4d f4             	mov    -0xc(%ebp),%ecx
  802b04:	89 ca                	mov    %ecx,%edx
  802b06:	01 d2                	add    %edx,%edx
  802b08:	01 ca                	add    %ecx,%edx
  802b0a:	01 d2                	add    %edx,%edx
  802b0c:	01 da                	add    %ebx,%edx
  802b0e:	81 c2 2c 47 00 00    	add    $0x472c,%edx
  802b14:	0f b7 12             	movzwl (%edx),%edx
  802b17:	66 85 d2             	test   %dx,%dx
  802b1a:	74 76                	je     802b92 <PAL_CompressInventory+0xbc>
  802b1c:	8b 98 a8 0f 01 00    	mov    0x10fa8(%eax),%ebx
  802b22:	8b 4d f4             	mov    -0xc(%ebp),%ecx
  802b25:	89 ca                	mov    %ecx,%edx
  802b27:	01 d2                	add    %edx,%edx
  802b29:	01 ca                	add    %ecx,%edx
  802b2b:	01 d2                	add    %edx,%edx
  802b2d:	01 da                	add    %ebx,%edx
  802b2f:	81 c2 2e 47 00 00    	add    $0x472e,%edx
  802b35:	0f b7 12             	movzwl (%edx),%edx
  802b38:	66 85 d2             	test   %dx,%dx
  802b3b:	74 42                	je     802b7f <PAL_CompressInventory+0xa9>
  802b3d:	8b 98 a8 0f 01 00    	mov    0x10fa8(%eax),%ebx
  802b43:	8b b0 a8 0f 01 00    	mov    0x10fa8(%eax),%esi
  802b49:	8b 4d f0             	mov    -0x10(%ebp),%ecx
  802b4c:	89 ca                	mov    %ecx,%edx
  802b4e:	01 d2                	add    %edx,%edx
  802b50:	01 ca                	add    %ecx,%edx
  802b52:	01 d2                	add    %edx,%edx
  802b54:	01 da                	add    %ebx,%edx
  802b56:	8d 8a 2c 47 00 00    	lea    0x472c(%edx),%ecx
  802b5c:	8b 5d f4             	mov    -0xc(%ebp),%ebx
  802b5f:	89 da                	mov    %ebx,%edx
  802b61:	01 d2                	add    %edx,%edx
  802b63:	01 da                	add    %ebx,%edx
  802b65:	01 d2                	add    %edx,%edx
  802b67:	01 f2                	add    %esi,%edx
  802b69:	81 c2 2c 47 00 00    	add    $0x472c,%edx
  802b6f:	8b 1a                	mov    (%edx),%ebx
  802b71:	89 19                	mov    %ebx,(%ecx)
  802b73:	0f b7 52 04          	movzwl 0x4(%edx),%edx
  802b77:	66 89 51 04          	mov    %dx,0x4(%ecx)
  802b7b:	83 45 f0 01          	addl   $0x1,-0x10(%ebp)
  802b7f:	83 45 f4 01          	addl   $0x1,-0xc(%ebp)
  802b83:	81 7d f4 ff 00 00 00 	cmpl   $0xff,-0xc(%ebp)
  802b8a:	0f 8e 6b ff ff ff    	jle    802afb <PAL_CompressInventory+0x25>
  802b90:	eb 61                	jmp    802bf3 <PAL_CompressInventory+0x11d>
  802b92:	90                   	nop
  802b93:	eb 5e                	jmp    802bf3 <PAL_CompressInventory+0x11d>
  802b95:	8b 98 a8 0f 01 00    	mov    0x10fa8(%eax),%ebx
  802b9b:	8b 4d f0             	mov    -0x10(%ebp),%ecx
  802b9e:	89 ca                	mov    %ecx,%edx
  802ba0:	01 d2                	add    %edx,%edx
  802ba2:	01 ca                	add    %ecx,%edx
  802ba4:	01 d2                	add    %edx,%edx
  802ba6:	01 da                	add    %ebx,%edx
  802ba8:	81 c2 2e 47 00 00    	add    $0x472e,%edx
  802bae:	66 c7 02 00 00       	movw   $0x0,(%edx)
  802bb3:	8b 98 a8 0f 01 00    	mov    0x10fa8(%eax),%ebx
  802bb9:	8b 4d f0             	mov    -0x10(%ebp),%ecx
  802bbc:	89 ca                	mov    %ecx,%edx
  802bbe:	01 d2                	add    %edx,%edx
  802bc0:	01 ca                	add    %ecx,%edx
  802bc2:	01 d2                	add    %edx,%edx
  802bc4:	01 da                	add    %ebx,%edx
  802bc6:	81 c2 30 47 00 00    	add    $0x4730,%edx
  802bcc:	66 c7 02 00 00       	movw   $0x0,(%edx)
  802bd1:	8b 98 a8 0f 01 00    	mov    0x10fa8(%eax),%ebx
  802bd7:	8b 4d f0             	mov    -0x10(%ebp),%ecx
  802bda:	89 ca                	mov    %ecx,%edx
  802bdc:	01 d2                	add    %edx,%edx
  802bde:	01 ca                	add    %ecx,%edx
  802be0:	01 d2                	add    %edx,%edx
  802be2:	01 da                	add    %ebx,%edx
  802be4:	81 c2 2c 47 00 00    	add    $0x472c,%edx
  802bea:	66 c7 02 00 00       	movw   $0x0,(%edx)
  802bef:	83 45 f0 01          	addl   $0x1,-0x10(%ebp)
  802bf3:	81 7d f0 ff 00 00 00 	cmpl   $0xff,-0x10(%ebp)
  802bfa:	7e 99                	jle    802b95 <PAL_CompressInventory+0xbf>
  802bfc:	90                   	nop
  802bfd:	83 c4 10             	add    $0x10,%esp
  802c00:	5b                   	pop    %ebx
  802c01:	5e                   	pop    %esi
  802c02:	5d                   	pop    %ebp
  802c03:	c3                   	ret    

00802c04 <PAL_IncreaseHPMP>:
  802c04:	55                   	push   %ebp
  802c05:	89 e5                	mov    %esp,%ebp
  802c07:	56                   	push   %esi
  802c08:	53                   	push   %ebx
  802c09:	83 ec 1c             	sub    $0x1c,%esp
  802c0c:	e8 6d d6 ff ff       	call   80027e <__x86.get_pc_thunk.ax>
  802c11:	05 ef 83 04 00       	add    $0x483ef,%eax
  802c16:	8b 5d 08             	mov    0x8(%ebp),%ebx
  802c19:	8b 4d 0c             	mov    0xc(%ebp),%ecx
  802c1c:	8b 55 10             	mov    0x10(%ebp),%edx
  802c1f:	66 89 5d e4          	mov    %bx,-0x1c(%ebp)
  802c23:	66 89 4d e0          	mov    %cx,-0x20(%ebp)
  802c27:	66 89 55 dc          	mov    %dx,-0x24(%ebp)
  802c2b:	c7 45 f4 00 00 00 00 	movl   $0x0,-0xc(%ebp)
  802c32:	8b 90 a8 0f 01 00    	mov    0x10fa8(%eax),%edx
  802c38:	0f b7 4d e4          	movzwl -0x1c(%ebp),%ecx
  802c3c:	81 c1 10 13 00 00    	add    $0x1310,%ecx
  802c42:	0f b7 54 4a 14       	movzwl 0x14(%edx,%ecx,2),%edx
  802c47:	66 85 d2             	test   %dx,%dx
  802c4a:	0f 84 7f 01 00 00    	je     802dcf <PAL_IncreaseHPMP+0x1cb>
  802c50:	8b 90 a8 0f 01 00    	mov    0x10fa8(%eax),%edx
  802c56:	0f b7 75 e4          	movzwl -0x1c(%ebp),%esi
  802c5a:	8b 88 a8 0f 01 00    	mov    0x10fa8(%eax),%ecx
  802c60:	0f b7 5d e4          	movzwl -0x1c(%ebp),%ebx
  802c64:	81 c3 10 13 00 00    	add    $0x1310,%ebx
  802c6a:	0f b7 5c 59 14       	movzwl 0x14(%ecx,%ebx,2),%ebx
  802c6f:	0f b7 4d e0          	movzwl -0x20(%ebp),%ecx
  802c73:	01 cb                	add    %ecx,%ebx
  802c75:	8d 8e 10 13 00 00    	lea    0x1310(%esi),%ecx
  802c7b:	66 89 5c 4a 14       	mov    %bx,0x14(%edx,%ecx,2)
  802c80:	8b 90 a8 0f 01 00    	mov    0x10fa8(%eax),%edx
  802c86:	0f b7 4d e4          	movzwl -0x1c(%ebp),%ecx
  802c8a:	81 c1 10 13 00 00    	add    $0x1310,%ecx
  802c90:	0f b7 54 4a 14       	movzwl 0x14(%edx,%ecx,2),%edx
  802c95:	66 85 d2             	test   %dx,%dx
  802c98:	79 19                	jns    802cb3 <PAL_IncreaseHPMP+0xaf>
  802c9a:	8b 90 a8 0f 01 00    	mov    0x10fa8(%eax),%edx
  802ca0:	0f b7 4d e4          	movzwl -0x1c(%ebp),%ecx
  802ca4:	81 c1 10 13 00 00    	add    $0x1310,%ecx
  802caa:	66 c7 44 4a 14 00 00 	movw   $0x0,0x14(%edx,%ecx,2)
  802cb1:	eb 59                	jmp    802d0c <PAL_IncreaseHPMP+0x108>
  802cb3:	8b 90 a8 0f 01 00    	mov    0x10fa8(%eax),%edx
  802cb9:	0f b7 4d e4          	movzwl -0x1c(%ebp),%ecx
  802cbd:	81 c1 10 13 00 00    	add    $0x1310,%ecx
  802cc3:	0f b7 4c 4a 14       	movzwl 0x14(%edx,%ecx,2),%ecx
  802cc8:	8b 90 a8 0f 01 00    	mov    0x10fa8(%eax),%edx
  802cce:	0f b7 5d e4          	movzwl -0x1c(%ebp),%ebx
  802cd2:	81 c3 08 13 00 00    	add    $0x1308,%ebx
  802cd8:	0f b7 54 5a 0c       	movzwl 0xc(%edx,%ebx,2),%edx
  802cdd:	66 39 d1             	cmp    %dx,%cx
  802ce0:	76 2a                	jbe    802d0c <PAL_IncreaseHPMP+0x108>
  802ce2:	8b 90 a8 0f 01 00    	mov    0x10fa8(%eax),%edx
  802ce8:	0f b7 5d e4          	movzwl -0x1c(%ebp),%ebx
  802cec:	8b 88 a8 0f 01 00    	mov    0x10fa8(%eax),%ecx
  802cf2:	0f b7 75 e4          	movzwl -0x1c(%ebp),%esi
  802cf6:	81 c6 08 13 00 00    	add    $0x1308,%esi
  802cfc:	0f b7 4c 71 0c       	movzwl 0xc(%ecx,%esi,2),%ecx
  802d01:	81 c3 10 13 00 00    	add    $0x1310,%ebx
  802d07:	66 89 4c 5a 14       	mov    %cx,0x14(%edx,%ebx,2)
  802d0c:	8b 90 a8 0f 01 00    	mov    0x10fa8(%eax),%edx
  802d12:	0f b7 75 e4          	movzwl -0x1c(%ebp),%esi
  802d16:	8b 88 a8 0f 01 00    	mov    0x10fa8(%eax),%ecx
  802d1c:	0f b7 5d e4          	movzwl -0x1c(%ebp),%ebx
  802d20:	81 c3 18 13 00 00    	add    $0x1318,%ebx
  802d26:	0f b7 5c 59 10       	movzwl 0x10(%ecx,%ebx,2),%ebx
  802d2b:	0f b7 4d dc          	movzwl -0x24(%ebp),%ecx
  802d2f:	01 cb                	add    %ecx,%ebx
  802d31:	8d 8e 18 13 00 00    	lea    0x1318(%esi),%ecx
  802d37:	66 89 5c 4a 10       	mov    %bx,0x10(%edx,%ecx,2)
  802d3c:	8b 90 a8 0f 01 00    	mov    0x10fa8(%eax),%edx
  802d42:	0f b7 4d e4          	movzwl -0x1c(%ebp),%ecx
  802d46:	81 c1 18 13 00 00    	add    $0x1318,%ecx
  802d4c:	0f b7 54 4a 10       	movzwl 0x10(%edx,%ecx,2),%edx
  802d51:	66 85 d2             	test   %dx,%dx
  802d54:	79 19                	jns    802d6f <PAL_IncreaseHPMP+0x16b>
  802d56:	8b 80 a8 0f 01 00    	mov    0x10fa8(%eax),%eax
  802d5c:	0f b7 55 e4          	movzwl -0x1c(%ebp),%edx
  802d60:	81 c2 18 13 00 00    	add    $0x1318,%edx
  802d66:	66 c7 44 50 10 00 00 	movw   $0x0,0x10(%eax,%edx,2)
  802d6d:	eb 59                	jmp    802dc8 <PAL_IncreaseHPMP+0x1c4>
  802d6f:	8b 90 a8 0f 01 00    	mov    0x10fa8(%eax),%edx
  802d75:	0f b7 4d e4          	movzwl -0x1c(%ebp),%ecx
  802d79:	81 c1 18 13 00 00    	add    $0x1318,%ecx
  802d7f:	0f b7 4c 4a 10       	movzwl 0x10(%edx,%ecx,2),%ecx
  802d84:	8b 90 a8 0f 01 00    	mov    0x10fa8(%eax),%edx
  802d8a:	0f b7 5d e4          	movzwl -0x1c(%ebp),%ebx
  802d8e:	81 c3 10 13 00 00    	add    $0x1310,%ebx
  802d94:	0f b7 54 5a 08       	movzwl 0x8(%edx,%ebx,2),%edx
  802d99:	66 39 d1             	cmp    %dx,%cx
  802d9c:	76 2a                	jbe    802dc8 <PAL_IncreaseHPMP+0x1c4>
  802d9e:	8b 90 a8 0f 01 00    	mov    0x10fa8(%eax),%edx
  802da4:	0f b7 4d e4          	movzwl -0x1c(%ebp),%ecx
  802da8:	8b 80 a8 0f 01 00    	mov    0x10fa8(%eax),%eax
  802dae:	0f b7 5d e4          	movzwl -0x1c(%ebp),%ebx
  802db2:	81 c3 10 13 00 00    	add    $0x1310,%ebx
  802db8:	0f b7 44 58 08       	movzwl 0x8(%eax,%ebx,2),%eax
  802dbd:	81 c1 18 13 00 00    	add    $0x1318,%ecx
  802dc3:	66 89 44 4a 10       	mov    %ax,0x10(%edx,%ecx,2)
  802dc8:	c7 45 f4 01 00 00 00 	movl   $0x1,-0xc(%ebp)
  802dcf:	8b 45 f4             	mov    -0xc(%ebp),%eax
  802dd2:	83 c4 1c             	add    $0x1c,%esp
  802dd5:	5b                   	pop    %ebx
  802dd6:	5e                   	pop    %esi
  802dd7:	5d                   	pop    %ebp
  802dd8:	c3                   	ret    

00802dd9 <PAL_UpdateEquipments>:
  802dd9:	55                   	push   %ebp
  802dda:	89 e5                	mov    %esp,%ebp
  802ddc:	57                   	push   %edi
  802ddd:	56                   	push   %esi
  802dde:	53                   	push   %ebx
  802ddf:	83 ec 2c             	sub    $0x2c,%esp
  802de2:	e8 9b d4 ff ff       	call   800282 <__x86.get_pc_thunk.bx>
  802de7:	81 c3 19 82 04 00    	add    $0x48219,%ebx
  802ded:	8b 83 a8 0f 01 00    	mov    0x10fa8(%ebx),%eax
  802df3:	05 e4 2a 00 00       	add    $0x2ae4,%eax
  802df8:	83 ec 04             	sub    $0x4,%esp
  802dfb:	68 9c 18 00 00       	push   $0x189c
  802e00:	6a 00                	push   $0x0
  802e02:	50                   	push   %eax
  802e03:	e8 15 f4 02 00       	call   83221d <memset>
  802e08:	83 c4 10             	add    $0x10,%esp
  802e0b:	c7 45 e4 00 00 00 00 	movl   $0x0,-0x1c(%ebp)
  802e12:	e9 9f 00 00 00       	jmp    802eb6 <PAL_UpdateEquipments+0xdd>
  802e17:	c7 45 e0 00 00 00 00 	movl   $0x0,-0x20(%ebp)
  802e1e:	e9 85 00 00 00       	jmp    802ea8 <PAL_UpdateEquipments+0xcf>
  802e23:	8b 8b a8 0f 01 00    	mov    0x10fa8(%ebx),%ecx
  802e29:	8b 55 e0             	mov    -0x20(%ebp),%edx
  802e2c:	89 d0                	mov    %edx,%eax
  802e2e:	01 c0                	add    %eax,%eax
  802e30:	01 d0                	add    %edx,%eax
  802e32:	01 c0                	add    %eax,%eax
  802e34:	8b 55 e4             	mov    -0x1c(%ebp),%edx
  802e37:	01 d0                	add    %edx,%eax
  802e39:	05 20 13 00 00       	add    $0x1320,%eax
  802e3e:	0f b7 44 41 0c       	movzwl 0xc(%ecx,%eax,2),%eax
  802e43:	66 89 45 de          	mov    %ax,-0x22(%ebp)
  802e47:	66 83 7d de 00       	cmpw   $0x0,-0x22(%ebp)
  802e4c:	74 56                	je     802ea4 <PAL_UpdateEquipments+0xcb>
  802e4e:	8b bb a8 0f 01 00    	mov    0x10fa8(%ebx),%edi
  802e54:	0f b7 75 de          	movzwl -0x22(%ebp),%esi
  802e58:	8b 45 e4             	mov    -0x1c(%ebp),%eax
  802e5b:	0f b7 c8             	movzwl %ax,%ecx
  802e5e:	8b 83 a8 0f 01 00    	mov    0x10fa8(%ebx),%eax
  802e64:	89 45 d4             	mov    %eax,-0x2c(%ebp)
  802e67:	0f b7 55 de          	movzwl -0x22(%ebp),%edx
  802e6b:	89 d0                	mov    %edx,%eax
  802e6d:	01 c0                	add    %eax,%eax
  802e6f:	01 d0                	add    %edx,%eax
  802e71:	c1 e0 02             	shl    $0x2,%eax
  802e74:	03 45 d4             	add    -0x2c(%ebp),%eax
  802e77:	05 8e 09 00 00       	add    $0x98e,%eax
  802e7c:	0f b7 00             	movzwl (%eax),%eax
  802e7f:	0f b7 c0             	movzwl %ax,%eax
  802e82:	83 ec 08             	sub    $0x8,%esp
  802e85:	51                   	push   %ecx
  802e86:	50                   	push   %eax
  802e87:	e8 70 f9 00 00       	call   8127fc <PAL_RunTriggerScript>
  802e8c:	83 c4 10             	add    $0x10,%esp
  802e8f:	89 c2                	mov    %eax,%edx
  802e91:	89 f0                	mov    %esi,%eax
  802e93:	01 c0                	add    %eax,%eax
  802e95:	01 f0                	add    %esi,%eax
  802e97:	c1 e0 02             	shl    $0x2,%eax
  802e9a:	01 f8                	add    %edi,%eax
  802e9c:	05 8e 09 00 00       	add    $0x98e,%eax
  802ea1:	66 89 10             	mov    %dx,(%eax)
  802ea4:	83 45 e0 01          	addl   $0x1,-0x20(%ebp)
  802ea8:	83 7d e0 05          	cmpl   $0x5,-0x20(%ebp)
  802eac:	0f 8e 71 ff ff ff    	jle    802e23 <PAL_UpdateEquipments+0x4a>
  802eb2:	83 45 e4 01          	addl   $0x1,-0x1c(%ebp)
  802eb6:	83 7d e4 05          	cmpl   $0x5,-0x1c(%ebp)
  802eba:	0f 8e 57 ff ff ff    	jle    802e17 <PAL_UpdateEquipments+0x3e>
  802ec0:	90                   	nop
  802ec1:	8d 65 f4             	lea    -0xc(%ebp),%esp
  802ec4:	5b                   	pop    %ebx
  802ec5:	5e                   	pop    %esi
  802ec6:	5f                   	pop    %edi
  802ec7:	5d                   	pop    %ebp
  802ec8:	c3                   	ret    

00802ec9 <PAL_RemoveEquipmentEffect>:
  802ec9:	55                   	push   %ebp
  802eca:	89 e5                	mov    %esp,%ebp
  802ecc:	57                   	push   %edi
  802ecd:	56                   	push   %esi
  802ece:	53                   	push   %ebx
  802ecf:	83 ec 1c             	sub    $0x1c,%esp
  802ed2:	e8 e5 14 00 00       	call   8043bc <__x86.get_pc_thunk.dx>
  802ed7:	81 c2 29 81 04 00    	add    $0x48129,%edx
  802edd:	8b 4d 08             	mov    0x8(%ebp),%ecx
  802ee0:	8b 45 0c             	mov    0xc(%ebp),%eax
  802ee3:	66 89 4d e0          	mov    %cx,-0x20(%ebp)
  802ee7:	66 89 45 dc          	mov    %ax,-0x24(%ebp)
  802eeb:	8b 82 a8 0f 01 00    	mov    0x10fa8(%edx),%eax
  802ef1:	0f b7 4d dc          	movzwl -0x24(%ebp),%ecx
  802ef5:	69 c9 84 03 00 00    	imul   $0x384,%ecx,%ecx
  802efb:	81 c1 e0 2a 00 00    	add    $0x2ae0,%ecx
  802f01:	01 c8                	add    %ecx,%eax
  802f03:	83 c0 04             	add    $0x4,%eax
  802f06:	89 45 e8             	mov    %eax,-0x18(%ebp)
  802f09:	c7 45 f0 00 00 00 00 	movl   $0x0,-0x10(%ebp)
  802f10:	eb 24                	jmp    802f36 <PAL_RemoveEquipmentEffect+0x6d>
  802f12:	8b 4d f0             	mov    -0x10(%ebp),%ecx
  802f15:	89 c8                	mov    %ecx,%eax
  802f17:	01 c0                	add    %eax,%eax
  802f19:	01 c8                	add    %ecx,%eax
  802f1b:	01 c0                	add    %eax,%eax
  802f1d:	89 c1                	mov    %eax,%ecx
  802f1f:	0f b7 45 e0          	movzwl -0x20(%ebp),%eax
  802f23:	01 c8                	add    %ecx,%eax
  802f25:	8d 0c 00             	lea    (%eax,%eax,1),%ecx
  802f28:	8b 45 e8             	mov    -0x18(%ebp),%eax
  802f2b:	01 c8                	add    %ecx,%eax
  802f2d:	66 c7 00 00 00       	movw   $0x0,(%eax)
  802f32:	83 45 f0 01          	addl   $0x1,-0x10(%ebp)
  802f36:	8b 45 f0             	mov    -0x10(%ebp),%eax
  802f39:	83 f8 4a             	cmp    $0x4a,%eax
  802f3c:	76 d4                	jbe    802f12 <PAL_RemoveEquipmentEffect+0x49>
  802f3e:	66 83 7d dc 03       	cmpw   $0x3,-0x24(%ebp)
  802f43:	75 24                	jne    802f69 <PAL_RemoveEquipmentEffect+0xa0>
  802f45:	8b 8a a8 0f 01 00    	mov    0x10fa8(%edx),%ecx
  802f4b:	0f b7 55 e0          	movzwl -0x20(%ebp),%edx
  802f4f:	89 d0                	mov    %edx,%eax
  802f51:	c1 e0 03             	shl    $0x3,%eax
  802f54:	01 d0                	add    %edx,%eax
  802f56:	01 c0                	add    %eax,%eax
  802f58:	01 c8                	add    %ecx,%eax
  802f5a:	05 90 43 00 00       	add    $0x4390,%eax
  802f5f:	66 c7 00 00 00       	movw   $0x0,(%eax)
  802f64:	e9 76 01 00 00       	jmp    8030df <PAL_RemoveEquipmentEffect+0x216>
  802f69:	66 83 7d dc 05       	cmpw   $0x5,-0x24(%ebp)
  802f6e:	0f 85 6b 01 00 00    	jne    8030df <PAL_RemoveEquipmentEffect+0x216>
  802f74:	c7 45 f0 00 00 00 00 	movl   $0x0,-0x10(%ebp)
  802f7b:	eb 2f                	jmp    802fac <PAL_RemoveEquipmentEffect+0xe3>
  802f7d:	8b 9a a8 0f 01 00    	mov    0x10fa8(%edx),%ebx
  802f83:	8b 4d f0             	mov    -0x10(%ebp),%ecx
  802f86:	89 c8                	mov    %ecx,%eax
  802f88:	c1 e0 02             	shl    $0x2,%eax
  802f8b:	01 c8                	add    %ecx,%eax
  802f8d:	01 c0                	add    %eax,%eax
  802f8f:	01 d8                	add    %ebx,%eax
  802f91:	05 f8 43 00 00       	add    $0x43f8,%eax
  802f96:	0f b7 00             	movzwl (%eax),%eax
  802f99:	66 3b 45 e0          	cmp    -0x20(%ebp),%ax
  802f9d:	75 09                	jne    802fa8 <PAL_RemoveEquipmentEffect+0xdf>
  802f9f:	8b 45 f0             	mov    -0x10(%ebp),%eax
  802fa2:	66 89 45 e0          	mov    %ax,-0x20(%ebp)
  802fa6:	eb 17                	jmp    802fbf <PAL_RemoveEquipmentEffect+0xf6>
  802fa8:	83 45 f0 01          	addl   $0x1,-0x10(%ebp)
  802fac:	8b 82 a8 0f 01 00    	mov    0x10fa8(%edx),%eax
  802fb2:	0f b7 80 f6 43 00 00 	movzwl 0x43f6(%eax),%eax
  802fb9:	98                   	cwtl   
  802fba:	3b 45 f0             	cmp    -0x10(%ebp),%eax
  802fbd:	7d be                	jge    802f7d <PAL_RemoveEquipmentEffect+0xb4>
  802fbf:	8b 82 a8 0f 01 00    	mov    0x10fa8(%edx),%eax
  802fc5:	0f b7 80 f6 43 00 00 	movzwl 0x43f6(%eax),%eax
  802fcc:	98                   	cwtl   
  802fcd:	3b 45 f0             	cmp    -0x10(%ebp),%eax
  802fd0:	0f 8c 09 01 00 00    	jl     8030df <PAL_RemoveEquipmentEffect+0x216>
  802fd6:	c7 45 ec 00 00 00 00 	movl   $0x0,-0x14(%ebp)
  802fdd:	c7 45 f0 00 00 00 00 	movl   $0x0,-0x10(%ebp)
  802fe4:	e9 99 00 00 00       	jmp    803082 <PAL_RemoveEquipmentEffect+0x1b9>
  802fe9:	8b 9a a8 0f 01 00    	mov    0x10fa8(%edx),%ebx
  802fef:	0f b7 75 e0          	movzwl -0x20(%ebp),%esi
  802ff3:	8b 4d f0             	mov    -0x10(%ebp),%ecx
  802ff6:	89 c8                	mov    %ecx,%eax
  802ff8:	c1 e0 02             	shl    $0x2,%eax
  802ffb:	01 c8                	add    %ecx,%eax
  802ffd:	01 f0                	add    %esi,%eax
  802fff:	05 78 11 00 00       	add    $0x1178,%eax
  803004:	0f b7 44 83 0c       	movzwl 0xc(%ebx,%eax,4),%eax
  803009:	66 89 45 e6          	mov    %ax,-0x1a(%ebp)
  80300d:	66 83 7d e6 00       	cmpw   $0x0,-0x1a(%ebp)
  803012:	74 7a                	je     80308e <PAL_RemoveEquipmentEffect+0x1c5>
  803014:	8b 9a a8 0f 01 00    	mov    0x10fa8(%edx),%ebx
  80301a:	0f b7 4d e6          	movzwl -0x1a(%ebp),%ecx
  80301e:	89 c8                	mov    %ecx,%eax
  803020:	01 c0                	add    %eax,%eax
  803022:	01 c8                	add    %ecx,%eax
  803024:	c1 e0 02             	shl    $0x2,%eax
  803027:	01 d8                	add    %ebx,%eax
  803029:	05 88 09 00 00       	add    $0x988,%eax
  80302e:	0f b7 00             	movzwl (%eax),%eax
  803031:	66 83 f8 62          	cmp    $0x62,%ax
  803035:	77 47                	ja     80307e <PAL_RemoveEquipmentEffect+0x1b5>
  803037:	8b b2 a8 0f 01 00    	mov    0x10fa8(%edx),%esi
  80303d:	0f b7 5d e0          	movzwl -0x20(%ebp),%ebx
  803041:	8b ba a8 0f 01 00    	mov    0x10fa8(%edx),%edi
  803047:	0f b7 45 e0          	movzwl -0x20(%ebp),%eax
  80304b:	89 45 d8             	mov    %eax,-0x28(%ebp)
  80304e:	8b 4d ec             	mov    -0x14(%ebp),%ecx
  803051:	89 c8                	mov    %ecx,%eax
  803053:	c1 e0 02             	shl    $0x2,%eax
  803056:	01 c8                	add    %ecx,%eax
  803058:	01 d8                	add    %ebx,%eax
  80305a:	8d 98 78 11 00 00    	lea    0x1178(%eax),%ebx
  803060:	8b 4d f0             	mov    -0x10(%ebp),%ecx
  803063:	89 c8                	mov    %ecx,%eax
  803065:	c1 e0 02             	shl    $0x2,%eax
  803068:	01 c8                	add    %ecx,%eax
  80306a:	03 45 d8             	add    -0x28(%ebp),%eax
  80306d:	05 78 11 00 00       	add    $0x1178,%eax
  803072:	8b 44 87 0c          	mov    0xc(%edi,%eax,4),%eax
  803076:	89 44 9e 0c          	mov    %eax,0xc(%esi,%ebx,4)
  80307a:	83 45 ec 01          	addl   $0x1,-0x14(%ebp)
  80307e:	83 45 f0 01          	addl   $0x1,-0x10(%ebp)
  803082:	83 7d f0 0f          	cmpl   $0xf,-0x10(%ebp)
  803086:	0f 8e 5d ff ff ff    	jle    802fe9 <PAL_RemoveEquipmentEffect+0x120>
  80308c:	eb 4b                	jmp    8030d9 <PAL_RemoveEquipmentEffect+0x210>
  80308e:	90                   	nop
  80308f:	eb 48                	jmp    8030d9 <PAL_RemoveEquipmentEffect+0x210>
  803091:	8b 9a a8 0f 01 00    	mov    0x10fa8(%edx),%ebx
  803097:	0f b7 75 e0          	movzwl -0x20(%ebp),%esi
  80309b:	8b 4d ec             	mov    -0x14(%ebp),%ecx
  80309e:	89 c8                	mov    %ecx,%eax
  8030a0:	c1 e0 02             	shl    $0x2,%eax
  8030a3:	01 c8                	add    %ecx,%eax
  8030a5:	01 f0                	add    %esi,%eax
  8030a7:	05 78 11 00 00       	add    $0x1178,%eax
  8030ac:	66 c7 44 83 0c 00 00 	movw   $0x0,0xc(%ebx,%eax,4)
  8030b3:	8b 9a a8 0f 01 00    	mov    0x10fa8(%edx),%ebx
  8030b9:	0f b7 75 e0          	movzwl -0x20(%ebp),%esi
  8030bd:	8b 4d ec             	mov    -0x14(%ebp),%ecx
  8030c0:	89 c8                	mov    %ecx,%eax
  8030c2:	c1 e0 02             	shl    $0x2,%eax
  8030c5:	01 c8                	add    %ecx,%eax
  8030c7:	01 f0                	add    %esi,%eax
  8030c9:	05 78 11 00 00       	add    $0x1178,%eax
  8030ce:	66 c7 44 83 0e 00 00 	movw   $0x0,0xe(%ebx,%eax,4)
  8030d5:	83 45 ec 01          	addl   $0x1,-0x14(%ebp)
  8030d9:	83 7d ec 0f          	cmpl   $0xf,-0x14(%ebp)
  8030dd:	7e b2                	jle    803091 <PAL_RemoveEquipmentEffect+0x1c8>
  8030df:	90                   	nop
  8030e0:	83 c4 1c             	add    $0x1c,%esp
  8030e3:	5b                   	pop    %ebx
  8030e4:	5e                   	pop    %esi
  8030e5:	5f                   	pop    %edi
  8030e6:	5d                   	pop    %ebp
  8030e7:	c3                   	ret    

008030e8 <PAL_AddPoisonForPlayer>:
  8030e8:	55                   	push   %ebp
  8030e9:	89 e5                	mov    %esp,%ebp
  8030eb:	53                   	push   %ebx
  8030ec:	83 ec 18             	sub    $0x18,%esp
  8030ef:	e8 8a d1 ff ff       	call   80027e <__x86.get_pc_thunk.ax>
  8030f4:	05 0c 7f 04 00       	add    $0x47f0c,%eax
  8030f9:	8b 4d 08             	mov    0x8(%ebp),%ecx
  8030fc:	8b 55 0c             	mov    0xc(%ebp),%edx
  8030ff:	66 89 4d e8          	mov    %cx,-0x18(%ebp)
  803103:	66 89 55 e4          	mov    %dx,-0x1c(%ebp)
  803107:	c7 45 f4 00 00 00 00 	movl   $0x0,-0xc(%ebp)
  80310e:	eb 27                	jmp    803137 <PAL_AddPoisonForPlayer+0x4f>
  803110:	8b 98 a8 0f 01 00    	mov    0x10fa8(%eax),%ebx
  803116:	8b 4d f4             	mov    -0xc(%ebp),%ecx
  803119:	89 ca                	mov    %ecx,%edx
  80311b:	c1 e2 02             	shl    $0x2,%edx
  80311e:	01 ca                	add    %ecx,%edx
  803120:	01 d2                	add    %edx,%edx
  803122:	01 da                	add    %ebx,%edx
  803124:	81 c2 f8 43 00 00    	add    $0x43f8,%edx
  80312a:	0f b7 12             	movzwl (%edx),%edx
  80312d:	66 3b 55 e8          	cmp    -0x18(%ebp),%dx
  803131:	74 1b                	je     80314e <PAL_AddPoisonForPlayer+0x66>
  803133:	83 45 f4 01          	addl   $0x1,-0xc(%ebp)
  803137:	8b 90 a8 0f 01 00    	mov    0x10fa8(%eax),%edx
  80313d:	0f b7 92 f6 43 00 00 	movzwl 0x43f6(%edx),%edx
  803144:	0f b7 d2             	movzwl %dx,%edx
  803147:	3b 55 f4             	cmp    -0xc(%ebp),%edx
  80314a:	7d c4                	jge    803110 <PAL_AddPoisonForPlayer+0x28>
  80314c:	eb 01                	jmp    80314f <PAL_AddPoisonForPlayer+0x67>
  80314e:	90                   	nop
  80314f:	8b 90 a8 0f 01 00    	mov    0x10fa8(%eax),%edx
  803155:	0f b7 92 f6 43 00 00 	movzwl 0x43f6(%edx),%edx
  80315c:	0f b7 d2             	movzwl %dx,%edx
  80315f:	3b 55 f4             	cmp    -0xc(%ebp),%edx
  803162:	0f 8c b3 00 00 00    	jl     80321b <PAL_AddPoisonForPlayer+0x133>
  803168:	c7 45 f8 00 00 00 00 	movl   $0x0,-0x8(%ebp)
  80316f:	eb 39                	jmp    8031aa <PAL_AddPoisonForPlayer+0xc2>
  803171:	8b 98 a8 0f 01 00    	mov    0x10fa8(%eax),%ebx
  803177:	8b 4d f8             	mov    -0x8(%ebp),%ecx
  80317a:	89 ca                	mov    %ecx,%edx
  80317c:	c1 e2 02             	shl    $0x2,%edx
  80317f:	01 ca                	add    %ecx,%edx
  803181:	8b 4d f4             	mov    -0xc(%ebp),%ecx
  803184:	01 ca                	add    %ecx,%edx
  803186:	81 c2 78 11 00 00    	add    $0x1178,%edx
  80318c:	0f b7 54 93 0c       	movzwl 0xc(%ebx,%edx,4),%edx
  803191:	66 89 55 f2          	mov    %dx,-0xe(%ebp)
  803195:	66 83 7d f2 00       	cmpw   $0x0,-0xe(%ebp)
  80319a:	74 16                	je     8031b2 <PAL_AddPoisonForPlayer+0xca>
  80319c:	0f b7 55 f2          	movzwl -0xe(%ebp),%edx
  8031a0:	66 3b 55 e4          	cmp    -0x1c(%ebp),%dx
  8031a4:	74 78                	je     80321e <PAL_AddPoisonForPlayer+0x136>
  8031a6:	83 45 f8 01          	addl   $0x1,-0x8(%ebp)
  8031aa:	83 7d f8 0f          	cmpl   $0xf,-0x8(%ebp)
  8031ae:	7e c1                	jle    803171 <PAL_AddPoisonForPlayer+0x89>
  8031b0:	eb 01                	jmp    8031b3 <PAL_AddPoisonForPlayer+0xcb>
  8031b2:	90                   	nop
  8031b3:	83 7d f8 0f          	cmpl   $0xf,-0x8(%ebp)
  8031b7:	7f 66                	jg     80321f <PAL_AddPoisonForPlayer+0x137>
  8031b9:	8b 98 a8 0f 01 00    	mov    0x10fa8(%eax),%ebx
  8031bf:	8b 4d f8             	mov    -0x8(%ebp),%ecx
  8031c2:	89 ca                	mov    %ecx,%edx
  8031c4:	c1 e2 02             	shl    $0x2,%edx
  8031c7:	01 ca                	add    %ecx,%edx
  8031c9:	8b 4d f4             	mov    -0xc(%ebp),%ecx
  8031cc:	01 ca                	add    %ecx,%edx
  8031ce:	8d 8a 78 11 00 00    	lea    0x1178(%edx),%ecx
  8031d4:	0f b7 55 e4          	movzwl -0x1c(%ebp),%edx
  8031d8:	66 89 54 8b 0c       	mov    %dx,0xc(%ebx,%ecx,4)
  8031dd:	8b 88 a8 0f 01 00    	mov    0x10fa8(%eax),%ecx
  8031e3:	8b 98 a8 0f 01 00    	mov    0x10fa8(%eax),%ebx
  8031e9:	0f b7 55 e4          	movzwl -0x1c(%ebp),%edx
  8031ed:	89 d0                	mov    %edx,%eax
  8031ef:	01 c0                	add    %eax,%eax
  8031f1:	01 d0                	add    %edx,%eax
  8031f3:	c1 e0 02             	shl    $0x2,%eax
  8031f6:	01 d8                	add    %ebx,%eax
  8031f8:	05 8c 09 00 00       	add    $0x98c,%eax
  8031fd:	0f b7 18             	movzwl (%eax),%ebx
  803200:	8b 55 f8             	mov    -0x8(%ebp),%edx
  803203:	89 d0                	mov    %edx,%eax
  803205:	c1 e0 02             	shl    $0x2,%eax
  803208:	01 d0                	add    %edx,%eax
  80320a:	8b 55 f4             	mov    -0xc(%ebp),%edx
  80320d:	01 d0                	add    %edx,%eax
  80320f:	05 78 11 00 00       	add    $0x1178,%eax
  803214:	66 89 5c 81 0e       	mov    %bx,0xe(%ecx,%eax,4)
  803219:	eb 04                	jmp    80321f <PAL_AddPoisonForPlayer+0x137>
  80321b:	90                   	nop
  80321c:	eb 01                	jmp    80321f <PAL_AddPoisonForPlayer+0x137>
  80321e:	90                   	nop
  80321f:	83 c4 18             	add    $0x18,%esp
  803222:	5b                   	pop    %ebx
  803223:	5d                   	pop    %ebp
  803224:	c3                   	ret    

00803225 <PAL_CurePoisonByKind>:
  803225:	55                   	push   %ebp
  803226:	89 e5                	mov    %esp,%ebp
  803228:	53                   	push   %ebx
  803229:	83 ec 18             	sub    $0x18,%esp
  80322c:	e8 4d d0 ff ff       	call   80027e <__x86.get_pc_thunk.ax>
  803231:	05 cf 7d 04 00       	add    $0x47dcf,%eax
  803236:	8b 4d 08             	mov    0x8(%ebp),%ecx
  803239:	8b 55 0c             	mov    0xc(%ebp),%edx
  80323c:	66 89 4d e8          	mov    %cx,-0x18(%ebp)
  803240:	66 89 55 e4          	mov    %dx,-0x1c(%ebp)
  803244:	c7 45 f4 00 00 00 00 	movl   $0x0,-0xc(%ebp)
  80324b:	eb 27                	jmp    803274 <PAL_CurePoisonByKind+0x4f>
  80324d:	8b 98 a8 0f 01 00    	mov    0x10fa8(%eax),%ebx
  803253:	8b 4d f4             	mov    -0xc(%ebp),%ecx
  803256:	89 ca                	mov    %ecx,%edx
  803258:	c1 e2 02             	shl    $0x2,%edx
  80325b:	01 ca                	add    %ecx,%edx
  80325d:	01 d2                	add    %edx,%edx
  80325f:	01 da                	add    %ebx,%edx
  803261:	81 c2 f8 43 00 00    	add    $0x43f8,%edx
  803267:	0f b7 12             	movzwl (%edx),%edx
  80326a:	66 3b 55 e8          	cmp    -0x18(%ebp),%dx
  80326e:	74 1b                	je     80328b <PAL_CurePoisonByKind+0x66>
  803270:	83 45 f4 01          	addl   $0x1,-0xc(%ebp)
  803274:	8b 90 a8 0f 01 00    	mov    0x10fa8(%eax),%edx
  80327a:	0f b7 92 f6 43 00 00 	movzwl 0x43f6(%edx),%edx
  803281:	0f b7 d2             	movzwl %dx,%edx
  803284:	3b 55 f4             	cmp    -0xc(%ebp),%edx
  803287:	7d c4                	jge    80324d <PAL_CurePoisonByKind+0x28>
  803289:	eb 01                	jmp    80328c <PAL_CurePoisonByKind+0x67>
  80328b:	90                   	nop
  80328c:	8b 90 a8 0f 01 00    	mov    0x10fa8(%eax),%edx
  803292:	0f b7 92 f6 43 00 00 	movzwl 0x43f6(%edx),%edx
  803299:	0f b7 d2             	movzwl %dx,%edx
  80329c:	3b 55 f4             	cmp    -0xc(%ebp),%edx
  80329f:	7c 7f                	jl     803320 <PAL_CurePoisonByKind+0xfb>
  8032a1:	c7 45 f8 00 00 00 00 	movl   $0x0,-0x8(%ebp)
  8032a8:	eb 6e                	jmp    803318 <PAL_CurePoisonByKind+0xf3>
  8032aa:	8b 98 a8 0f 01 00    	mov    0x10fa8(%eax),%ebx
  8032b0:	8b 4d f8             	mov    -0x8(%ebp),%ecx
  8032b3:	89 ca                	mov    %ecx,%edx
  8032b5:	c1 e2 02             	shl    $0x2,%edx
  8032b8:	01 ca                	add    %ecx,%edx
  8032ba:	8b 4d f4             	mov    -0xc(%ebp),%ecx
  8032bd:	01 ca                	add    %ecx,%edx
  8032bf:	81 c2 78 11 00 00    	add    $0x1178,%edx
  8032c5:	0f b7 54 93 0c       	movzwl 0xc(%ebx,%edx,4),%edx
  8032ca:	66 3b 55 e4          	cmp    -0x1c(%ebp),%dx
  8032ce:	75 44                	jne    803314 <PAL_CurePoisonByKind+0xef>
  8032d0:	8b 98 a8 0f 01 00    	mov    0x10fa8(%eax),%ebx
  8032d6:	8b 4d f8             	mov    -0x8(%ebp),%ecx
  8032d9:	89 ca                	mov    %ecx,%edx
  8032db:	c1 e2 02             	shl    $0x2,%edx
  8032de:	01 ca                	add    %ecx,%edx
  8032e0:	8b 4d f4             	mov    -0xc(%ebp),%ecx
  8032e3:	01 ca                	add    %ecx,%edx
  8032e5:	81 c2 78 11 00 00    	add    $0x1178,%edx
  8032eb:	66 c7 44 93 0c 00 00 	movw   $0x0,0xc(%ebx,%edx,4)
  8032f2:	8b 98 a8 0f 01 00    	mov    0x10fa8(%eax),%ebx
  8032f8:	8b 4d f8             	mov    -0x8(%ebp),%ecx
  8032fb:	89 ca                	mov    %ecx,%edx
  8032fd:	c1 e2 02             	shl    $0x2,%edx
  803300:	01 ca                	add    %ecx,%edx
  803302:	8b 4d f4             	mov    -0xc(%ebp),%ecx
  803305:	01 ca                	add    %ecx,%edx
  803307:	81 c2 78 11 00 00    	add    $0x1178,%edx
  80330d:	66 c7 44 93 0e 00 00 	movw   $0x0,0xe(%ebx,%edx,4)
  803314:	83 45 f8 01          	addl   $0x1,-0x8(%ebp)
  803318:	83 7d f8 0f          	cmpl   $0xf,-0x8(%ebp)
  80331c:	7e 8c                	jle    8032aa <PAL_CurePoisonByKind+0x85>
  80331e:	eb 01                	jmp    803321 <PAL_CurePoisonByKind+0xfc>
  803320:	90                   	nop
  803321:	83 c4 18             	add    $0x18,%esp
  803324:	5b                   	pop    %ebx
  803325:	5d                   	pop    %ebp
  803326:	c3                   	ret    

00803327 <PAL_CurePoisonByLevel>:
  803327:	55                   	push   %ebp
  803328:	89 e5                	mov    %esp,%ebp
  80332a:	53                   	push   %ebx
  80332b:	83 ec 18             	sub    $0x18,%esp
  80332e:	e8 4b cf ff ff       	call   80027e <__x86.get_pc_thunk.ax>
  803333:	05 cd 7c 04 00       	add    $0x47ccd,%eax
  803338:	8b 4d 08             	mov    0x8(%ebp),%ecx
  80333b:	8b 55 0c             	mov    0xc(%ebp),%edx
  80333e:	66 89 4d e8          	mov    %cx,-0x18(%ebp)
  803342:	66 89 55 e4          	mov    %dx,-0x1c(%ebp)
  803346:	c7 45 f4 00 00 00 00 	movl   $0x0,-0xc(%ebp)
  80334d:	eb 27                	jmp    803376 <PAL_CurePoisonByLevel+0x4f>
  80334f:	8b 98 a8 0f 01 00    	mov    0x10fa8(%eax),%ebx
  803355:	8b 4d f4             	mov    -0xc(%ebp),%ecx
  803358:	89 ca                	mov    %ecx,%edx
  80335a:	c1 e2 02             	shl    $0x2,%edx
  80335d:	01 ca                	add    %ecx,%edx
  80335f:	01 d2                	add    %edx,%edx
  803361:	01 da                	add    %ebx,%edx
  803363:	81 c2 f8 43 00 00    	add    $0x43f8,%edx
  803369:	0f b7 12             	movzwl (%edx),%edx
  80336c:	66 3b 55 e8          	cmp    -0x18(%ebp),%dx
  803370:	74 1b                	je     80338d <PAL_CurePoisonByLevel+0x66>
  803372:	83 45 f4 01          	addl   $0x1,-0xc(%ebp)
  803376:	8b 90 a8 0f 01 00    	mov    0x10fa8(%eax),%edx
  80337c:	0f b7 92 f6 43 00 00 	movzwl 0x43f6(%edx),%edx
  803383:	0f b7 d2             	movzwl %dx,%edx
  803386:	3b 55 f4             	cmp    -0xc(%ebp),%edx
  803389:	7d c4                	jge    80334f <PAL_CurePoisonByLevel+0x28>
  80338b:	eb 01                	jmp    80338e <PAL_CurePoisonByLevel+0x67>
  80338d:	90                   	nop
  80338e:	8b 90 a8 0f 01 00    	mov    0x10fa8(%eax),%edx
  803394:	0f b7 92 f6 43 00 00 	movzwl 0x43f6(%edx),%edx
  80339b:	0f b7 d2             	movzwl %dx,%edx
  80339e:	3b 55 f4             	cmp    -0xc(%ebp),%edx
  8033a1:	0f 8c a8 00 00 00    	jl     80344f <PAL_CurePoisonByLevel+0x128>
  8033a7:	c7 45 f8 00 00 00 00 	movl   $0x0,-0x8(%ebp)
  8033ae:	e9 90 00 00 00       	jmp    803443 <PAL_CurePoisonByLevel+0x11c>
  8033b3:	8b 98 a8 0f 01 00    	mov    0x10fa8(%eax),%ebx
  8033b9:	8b 4d f8             	mov    -0x8(%ebp),%ecx
  8033bc:	89 ca                	mov    %ecx,%edx
  8033be:	c1 e2 02             	shl    $0x2,%edx
  8033c1:	01 ca                	add    %ecx,%edx
  8033c3:	8b 4d f4             	mov    -0xc(%ebp),%ecx
  8033c6:	01 ca                	add    %ecx,%edx
  8033c8:	81 c2 78 11 00 00    	add    $0x1178,%edx
  8033ce:	0f b7 54 93 0c       	movzwl 0xc(%ebx,%edx,4),%edx
  8033d3:	66 89 55 f2          	mov    %dx,-0xe(%ebp)
  8033d7:	8b 98 a8 0f 01 00    	mov    0x10fa8(%eax),%ebx
  8033dd:	0f b7 4d f2          	movzwl -0xe(%ebp),%ecx
  8033e1:	89 ca                	mov    %ecx,%edx
  8033e3:	01 d2                	add    %edx,%edx
  8033e5:	01 ca                	add    %ecx,%edx
  8033e7:	c1 e2 02             	shl    $0x2,%edx
  8033ea:	01 da                	add    %ebx,%edx
  8033ec:	81 c2 88 09 00 00    	add    $0x988,%edx
  8033f2:	0f b7 12             	movzwl (%edx),%edx
  8033f5:	66 3b 55 e4          	cmp    -0x1c(%ebp),%dx
  8033f9:	77 44                	ja     80343f <PAL_CurePoisonByLevel+0x118>
  8033fb:	8b 98 a8 0f 01 00    	mov    0x10fa8(%eax),%ebx
  803401:	8b 4d f8             	mov    -0x8(%ebp),%ecx
  803404:	89 ca                	mov    %ecx,%edx
  803406:	c1 e2 02             	shl    $0x2,%edx
  803409:	01 ca                	add    %ecx,%edx
  80340b:	8b 4d f4             	mov    -0xc(%ebp),%ecx
  80340e:	01 ca                	add    %ecx,%edx
  803410:	81 c2 78 11 00 00    	add    $0x1178,%edx
  803416:	66 c7 44 93 0c 00 00 	movw   $0x0,0xc(%ebx,%edx,4)
  80341d:	8b 98 a8 0f 01 00    	mov    0x10fa8(%eax),%ebx
  803423:	8b 4d f8             	mov    -0x8(%ebp),%ecx
  803426:	89 ca                	mov    %ecx,%edx
  803428:	c1 e2 02             	shl    $0x2,%edx
  80342b:	01 ca                	add    %ecx,%edx
  80342d:	8b 4d f4             	mov    -0xc(%ebp),%ecx
  803430:	01 ca                	add    %ecx,%edx
  803432:	81 c2 78 11 00 00    	add    $0x1178,%edx
  803438:	66 c7 44 93 0e 00 00 	movw   $0x0,0xe(%ebx,%edx,4)
  80343f:	83 45 f8 01          	addl   $0x1,-0x8(%ebp)
  803443:	83 7d f8 0f          	cmpl   $0xf,-0x8(%ebp)
  803447:	0f 8e 66 ff ff ff    	jle    8033b3 <PAL_CurePoisonByLevel+0x8c>
  80344d:	eb 01                	jmp    803450 <PAL_CurePoisonByLevel+0x129>
  80344f:	90                   	nop
  803450:	83 c4 18             	add    $0x18,%esp
  803453:	5b                   	pop    %ebx
  803454:	5d                   	pop    %ebp
  803455:	c3                   	ret    

00803456 <PAL_IsPlayerPoisonedByLevel>:
  803456:	55                   	push   %ebp
  803457:	89 e5                	mov    %esp,%ebp
  803459:	53                   	push   %ebx
  80345a:	83 ec 18             	sub    $0x18,%esp
  80345d:	e8 5a 0f 00 00       	call   8043bc <__x86.get_pc_thunk.dx>
  803462:	81 c2 9e 7b 04 00    	add    $0x47b9e,%edx
  803468:	8b 4d 08             	mov    0x8(%ebp),%ecx
  80346b:	8b 45 0c             	mov    0xc(%ebp),%eax
  80346e:	66 89 4d e8          	mov    %cx,-0x18(%ebp)
  803472:	66 89 45 e4          	mov    %ax,-0x1c(%ebp)
  803476:	c7 45 f4 00 00 00 00 	movl   $0x0,-0xc(%ebp)
  80347d:	eb 26                	jmp    8034a5 <PAL_IsPlayerPoisonedByLevel+0x4f>
  80347f:	8b 9a a8 0f 01 00    	mov    0x10fa8(%edx),%ebx
  803485:	8b 4d f4             	mov    -0xc(%ebp),%ecx
  803488:	89 c8                	mov    %ecx,%eax
  80348a:	c1 e0 02             	shl    $0x2,%eax
  80348d:	01 c8                	add    %ecx,%eax
  80348f:	01 c0                	add    %eax,%eax
  803491:	01 d8                	add    %ebx,%eax
  803493:	05 f8 43 00 00       	add    $0x43f8,%eax
  803498:	0f b7 00             	movzwl (%eax),%eax
  80349b:	66 3b 45 e8          	cmp    -0x18(%ebp),%ax
  80349f:	74 1b                	je     8034bc <PAL_IsPlayerPoisonedByLevel+0x66>
  8034a1:	83 45 f4 01          	addl   $0x1,-0xc(%ebp)
  8034a5:	8b 82 a8 0f 01 00    	mov    0x10fa8(%edx),%eax
  8034ab:	0f b7 80 f6 43 00 00 	movzwl 0x43f6(%eax),%eax
  8034b2:	0f b7 c0             	movzwl %ax,%eax
  8034b5:	3b 45 f4             	cmp    -0xc(%ebp),%eax
  8034b8:	7d c5                	jge    80347f <PAL_IsPlayerPoisonedByLevel+0x29>
  8034ba:	eb 01                	jmp    8034bd <PAL_IsPlayerPoisonedByLevel+0x67>
  8034bc:	90                   	nop
  8034bd:	8b 82 a8 0f 01 00    	mov    0x10fa8(%edx),%eax
  8034c3:	0f b7 80 f6 43 00 00 	movzwl 0x43f6(%eax),%eax
  8034ca:	0f b7 c0             	movzwl %ax,%eax
  8034cd:	3b 45 f4             	cmp    -0xc(%ebp),%eax
  8034d0:	7d 07                	jge    8034d9 <PAL_IsPlayerPoisonedByLevel+0x83>
  8034d2:	b8 00 00 00 00       	mov    $0x0,%eax
  8034d7:	eb 75                	jmp    80354e <PAL_IsPlayerPoisonedByLevel+0xf8>
  8034d9:	c7 45 f8 00 00 00 00 	movl   $0x0,-0x8(%ebp)
  8034e0:	eb 61                	jmp    803543 <PAL_IsPlayerPoisonedByLevel+0xed>
  8034e2:	8b 9a a8 0f 01 00    	mov    0x10fa8(%edx),%ebx
  8034e8:	8b 4d f8             	mov    -0x8(%ebp),%ecx
  8034eb:	89 c8                	mov    %ecx,%eax
  8034ed:	c1 e0 02             	shl    $0x2,%eax
  8034f0:	01 c8                	add    %ecx,%eax
  8034f2:	8b 4d f4             	mov    -0xc(%ebp),%ecx
  8034f5:	01 c8                	add    %ecx,%eax
  8034f7:	05 78 11 00 00       	add    $0x1178,%eax
  8034fc:	0f b7 44 83 0c       	movzwl 0xc(%ebx,%eax,4),%eax
  803501:	66 89 45 f2          	mov    %ax,-0xe(%ebp)
  803505:	8b 9a a8 0f 01 00    	mov    0x10fa8(%edx),%ebx
  80350b:	0f b7 4d f2          	movzwl -0xe(%ebp),%ecx
  80350f:	89 c8                	mov    %ecx,%eax
  803511:	01 c0                	add    %eax,%eax
  803513:	01 c8                	add    %ecx,%eax
  803515:	c1 e0 02             	shl    $0x2,%eax
  803518:	01 d8                	add    %ebx,%eax
  80351a:	05 88 09 00 00       	add    $0x988,%eax
  80351f:	0f b7 00             	movzwl (%eax),%eax
  803522:	66 89 45 f2          	mov    %ax,-0xe(%ebp)
  803526:	66 83 7d f2 62       	cmpw   $0x62,-0xe(%ebp)
  80352b:	77 11                	ja     80353e <PAL_IsPlayerPoisonedByLevel+0xe8>
  80352d:	0f b7 45 f2          	movzwl -0xe(%ebp),%eax
  803531:	66 3b 45 e4          	cmp    -0x1c(%ebp),%ax
  803535:	72 08                	jb     80353f <PAL_IsPlayerPoisonedByLevel+0xe9>
  803537:	b8 01 00 00 00       	mov    $0x1,%eax
  80353c:	eb 10                	jmp    80354e <PAL_IsPlayerPoisonedByLevel+0xf8>
  80353e:	90                   	nop
  80353f:	83 45 f8 01          	addl   $0x1,-0x8(%ebp)
  803543:	83 7d f8 0f          	cmpl   $0xf,-0x8(%ebp)
  803547:	7e 99                	jle    8034e2 <PAL_IsPlayerPoisonedByLevel+0x8c>
  803549:	b8 00 00 00 00       	mov    $0x0,%eax
  80354e:	83 c4 18             	add    $0x18,%esp
  803551:	5b                   	pop    %ebx
  803552:	5d                   	pop    %ebp
  803553:	c3                   	ret    

00803554 <PAL_IsPlayerPoisonedByKind>:
  803554:	55                   	push   %ebp
  803555:	89 e5                	mov    %esp,%ebp
  803557:	53                   	push   %ebx
  803558:	83 ec 18             	sub    $0x18,%esp
  80355b:	e8 5c 0e 00 00       	call   8043bc <__x86.get_pc_thunk.dx>
  803560:	81 c2 a0 7a 04 00    	add    $0x47aa0,%edx
  803566:	8b 4d 08             	mov    0x8(%ebp),%ecx
  803569:	8b 45 0c             	mov    0xc(%ebp),%eax
  80356c:	66 89 4d e8          	mov    %cx,-0x18(%ebp)
  803570:	66 89 45 e4          	mov    %ax,-0x1c(%ebp)
  803574:	c7 45 f4 00 00 00 00 	movl   $0x0,-0xc(%ebp)
  80357b:	eb 26                	jmp    8035a3 <PAL_IsPlayerPoisonedByKind+0x4f>
  80357d:	8b 9a a8 0f 01 00    	mov    0x10fa8(%edx),%ebx
  803583:	8b 4d f4             	mov    -0xc(%ebp),%ecx
  803586:	89 c8                	mov    %ecx,%eax
  803588:	c1 e0 02             	shl    $0x2,%eax
  80358b:	01 c8                	add    %ecx,%eax
  80358d:	01 c0                	add    %eax,%eax
  80358f:	01 d8                	add    %ebx,%eax
  803591:	05 f8 43 00 00       	add    $0x43f8,%eax
  803596:	0f b7 00             	movzwl (%eax),%eax
  803599:	66 3b 45 e8          	cmp    -0x18(%ebp),%ax
  80359d:	74 1b                	je     8035ba <PAL_IsPlayerPoisonedByKind+0x66>
  80359f:	83 45 f4 01          	addl   $0x1,-0xc(%ebp)
  8035a3:	8b 82 a8 0f 01 00    	mov    0x10fa8(%edx),%eax
  8035a9:	0f b7 80 f6 43 00 00 	movzwl 0x43f6(%eax),%eax
  8035b0:	0f b7 c0             	movzwl %ax,%eax
  8035b3:	3b 45 f4             	cmp    -0xc(%ebp),%eax
  8035b6:	7d c5                	jge    80357d <PAL_IsPlayerPoisonedByKind+0x29>
  8035b8:	eb 01                	jmp    8035bb <PAL_IsPlayerPoisonedByKind+0x67>
  8035ba:	90                   	nop
  8035bb:	8b 82 a8 0f 01 00    	mov    0x10fa8(%edx),%eax
  8035c1:	0f b7 80 f6 43 00 00 	movzwl 0x43f6(%eax),%eax
  8035c8:	0f b7 c0             	movzwl %ax,%eax
  8035cb:	3b 45 f4             	cmp    -0xc(%ebp),%eax
  8035ce:	7d 07                	jge    8035d7 <PAL_IsPlayerPoisonedByKind+0x83>
  8035d0:	b8 00 00 00 00       	mov    $0x0,%eax
  8035d5:	eb 44                	jmp    80361b <PAL_IsPlayerPoisonedByKind+0xc7>
  8035d7:	c7 45 f8 00 00 00 00 	movl   $0x0,-0x8(%ebp)
  8035de:	eb 30                	jmp    803610 <PAL_IsPlayerPoisonedByKind+0xbc>
  8035e0:	8b 9a a8 0f 01 00    	mov    0x10fa8(%edx),%ebx
  8035e6:	8b 4d f8             	mov    -0x8(%ebp),%ecx
  8035e9:	89 c8                	mov    %ecx,%eax
  8035eb:	c1 e0 02             	shl    $0x2,%eax
  8035ee:	01 c8                	add    %ecx,%eax
  8035f0:	8b 4d f4             	mov    -0xc(%ebp),%ecx
  8035f3:	01 c8                	add    %ecx,%eax
  8035f5:	05 78 11 00 00       	add    $0x1178,%eax
  8035fa:	0f b7 44 83 0c       	movzwl 0xc(%ebx,%eax,4),%eax
  8035ff:	66 3b 45 e4          	cmp    -0x1c(%ebp),%ax
  803603:	75 07                	jne    80360c <PAL_IsPlayerPoisonedByKind+0xb8>
  803605:	b8 01 00 00 00       	mov    $0x1,%eax
  80360a:	eb 0f                	jmp    80361b <PAL_IsPlayerPoisonedByKind+0xc7>
  80360c:	83 45 f8 01          	addl   $0x1,-0x8(%ebp)
  803610:	83 7d f8 0f          	cmpl   $0xf,-0x8(%ebp)
  803614:	7e ca                	jle    8035e0 <PAL_IsPlayerPoisonedByKind+0x8c>
  803616:	b8 00 00 00 00       	mov    $0x0,%eax
  80361b:	83 c4 18             	add    $0x18,%esp
  80361e:	5b                   	pop    %ebx
  80361f:	5d                   	pop    %ebp
  803620:	c3                   	ret    

00803621 <PAL_GetPlayerAttackStrength>:
  803621:	55                   	push   %ebp
  803622:	89 e5                	mov    %esp,%ebp
  803624:	53                   	push   %ebx
  803625:	83 ec 14             	sub    $0x14,%esp
  803628:	e8 51 cc ff ff       	call   80027e <__x86.get_pc_thunk.ax>
  80362d:	05 d3 79 04 00       	add    $0x479d3,%eax
  803632:	8b 55 08             	mov    0x8(%ebp),%edx
  803635:	66 89 55 e8          	mov    %dx,-0x18(%ebp)
  803639:	8b 90 a8 0f 01 00    	mov    0x10fa8(%eax),%edx
  80363f:	0f b7 4d e8          	movzwl -0x18(%ebp),%ecx
  803643:	81 c1 40 13 00 00    	add    $0x1340,%ecx
  803649:	0f b7 54 4a 14       	movzwl 0x14(%edx,%ecx,2),%edx
  80364e:	66 89 55 fa          	mov    %dx,-0x6(%ebp)
  803652:	c7 45 f4 00 00 00 00 	movl   $0x0,-0xc(%ebp)
  803659:	eb 28                	jmp    803683 <PAL_GetPlayerAttackStrength+0x62>
  80365b:	8b 90 a8 0f 01 00    	mov    0x10fa8(%eax),%edx
  803661:	0f b7 4d e8          	movzwl -0x18(%ebp),%ecx
  803665:	8b 5d f4             	mov    -0xc(%ebp),%ebx
  803668:	69 db c2 01 00 00    	imul   $0x1c2,%ebx,%ebx
  80366e:	01 d9                	add    %ebx,%ecx
  803670:	81 c1 d0 15 00 00    	add    $0x15d0,%ecx
  803676:	0f b7 54 4a 10       	movzwl 0x10(%edx,%ecx,2),%edx
  80367b:	66 01 55 fa          	add    %dx,-0x6(%ebp)
  80367f:	83 45 f4 01          	addl   $0x1,-0xc(%ebp)
  803683:	83 7d f4 06          	cmpl   $0x6,-0xc(%ebp)
  803687:	7e d2                	jle    80365b <PAL_GetPlayerAttackStrength+0x3a>
  803689:	0f b7 45 fa          	movzwl -0x6(%ebp),%eax
  80368d:	83 c4 14             	add    $0x14,%esp
  803690:	5b                   	pop    %ebx
  803691:	5d                   	pop    %ebp
  803692:	c3                   	ret    

00803693 <PAL_GetPlayerMagicStrength>:
  803693:	55                   	push   %ebp
  803694:	89 e5                	mov    %esp,%ebp
  803696:	53                   	push   %ebx
  803697:	83 ec 14             	sub    $0x14,%esp
  80369a:	e8 df cb ff ff       	call   80027e <__x86.get_pc_thunk.ax>
  80369f:	05 61 79 04 00       	add    $0x47961,%eax
  8036a4:	8b 55 08             	mov    0x8(%ebp),%edx
  8036a7:	66 89 55 e8          	mov    %dx,-0x18(%ebp)
  8036ab:	8b 90 a8 0f 01 00    	mov    0x10fa8(%eax),%edx
  8036b1:	0f b7 4d e8          	movzwl -0x18(%ebp),%ecx
  8036b5:	81 c1 48 13 00 00    	add    $0x1348,%ecx
  8036bb:	0f b7 54 4a 10       	movzwl 0x10(%edx,%ecx,2),%edx
  8036c0:	66 89 55 fa          	mov    %dx,-0x6(%ebp)
  8036c4:	c7 45 f4 00 00 00 00 	movl   $0x0,-0xc(%ebp)
  8036cb:	eb 28                	jmp    8036f5 <PAL_GetPlayerMagicStrength+0x62>
  8036cd:	8b 90 a8 0f 01 00    	mov    0x10fa8(%eax),%edx
  8036d3:	0f b7 4d e8          	movzwl -0x18(%ebp),%ecx
  8036d7:	8b 5d f4             	mov    -0xc(%ebp),%ebx
  8036da:	69 db c2 01 00 00    	imul   $0x1c2,%ebx,%ebx
  8036e0:	01 d9                	add    %ebx,%ecx
  8036e2:	81 c1 d8 15 00 00    	add    $0x15d8,%ecx
  8036e8:	0f b7 54 4a 0c       	movzwl 0xc(%edx,%ecx,2),%edx
  8036ed:	66 01 55 fa          	add    %dx,-0x6(%ebp)
  8036f1:	83 45 f4 01          	addl   $0x1,-0xc(%ebp)
  8036f5:	83 7d f4 06          	cmpl   $0x6,-0xc(%ebp)
  8036f9:	7e d2                	jle    8036cd <PAL_GetPlayerMagicStrength+0x3a>
  8036fb:	0f b7 45 fa          	movzwl -0x6(%ebp),%eax
  8036ff:	83 c4 14             	add    $0x14,%esp
  803702:	5b                   	pop    %ebx
  803703:	5d                   	pop    %ebp
  803704:	c3                   	ret    

00803705 <PAL_GetPlayerDefense>:
  803705:	55                   	push   %ebp
  803706:	89 e5                	mov    %esp,%ebp
  803708:	53                   	push   %ebx
  803709:	83 ec 14             	sub    $0x14,%esp
  80370c:	e8 6d cb ff ff       	call   80027e <__x86.get_pc_thunk.ax>
  803711:	05 ef 78 04 00       	add    $0x478ef,%eax
  803716:	8b 55 08             	mov    0x8(%ebp),%edx
  803719:	66 89 55 e8          	mov    %dx,-0x18(%ebp)
  80371d:	8b 90 a8 0f 01 00    	mov    0x10fa8(%eax),%edx
  803723:	0f b7 4d e8          	movzwl -0x18(%ebp),%ecx
  803727:	81 c1 50 13 00 00    	add    $0x1350,%ecx
  80372d:	0f b7 54 4a 0c       	movzwl 0xc(%edx,%ecx,2),%edx
  803732:	66 89 55 fa          	mov    %dx,-0x6(%ebp)
  803736:	c7 45 f4 00 00 00 00 	movl   $0x0,-0xc(%ebp)
  80373d:	eb 28                	jmp    803767 <PAL_GetPlayerDefense+0x62>
  80373f:	8b 90 a8 0f 01 00    	mov    0x10fa8(%eax),%edx
  803745:	0f b7 4d e8          	movzwl -0x18(%ebp),%ecx
  803749:	8b 5d f4             	mov    -0xc(%ebp),%ebx
  80374c:	69 db c2 01 00 00    	imul   $0x1c2,%ebx,%ebx
  803752:	01 d9                	add    %ebx,%ecx
  803754:	81 c1 e0 15 00 00    	add    $0x15e0,%ecx
  80375a:	0f b7 54 4a 08       	movzwl 0x8(%edx,%ecx,2),%edx
  80375f:	66 01 55 fa          	add    %dx,-0x6(%ebp)
  803763:	83 45 f4 01          	addl   $0x1,-0xc(%ebp)
  803767:	83 7d f4 06          	cmpl   $0x6,-0xc(%ebp)
  80376b:	7e d2                	jle    80373f <PAL_GetPlayerDefense+0x3a>
  80376d:	0f b7 45 fa          	movzwl -0x6(%ebp),%eax
  803771:	83 c4 14             	add    $0x14,%esp
  803774:	5b                   	pop    %ebx
  803775:	5d                   	pop    %ebp
  803776:	c3                   	ret    

00803777 <PAL_GetPlayerDexterity>:
  803777:	55                   	push   %ebp
  803778:	89 e5                	mov    %esp,%ebp
  80377a:	53                   	push   %ebx
  80377b:	83 ec 14             	sub    $0x14,%esp
  80377e:	e8 fb ca ff ff       	call   80027e <__x86.get_pc_thunk.ax>
  803783:	05 7d 78 04 00       	add    $0x4787d,%eax
  803788:	8b 55 08             	mov    0x8(%ebp),%edx
  80378b:	66 89 55 e8          	mov    %dx,-0x18(%ebp)
  80378f:	8b 90 a8 0f 01 00    	mov    0x10fa8(%eax),%edx
  803795:	0f b7 4d e8          	movzwl -0x18(%ebp),%ecx
  803799:	81 c1 58 13 00 00    	add    $0x1358,%ecx
  80379f:	0f b7 54 4a 08       	movzwl 0x8(%edx,%ecx,2),%edx
  8037a4:	66 89 55 fa          	mov    %dx,-0x6(%ebp)
  8037a8:	c7 45 f4 00 00 00 00 	movl   $0x0,-0xc(%ebp)
  8037af:	eb 28                	jmp    8037d9 <PAL_GetPlayerDexterity+0x62>
  8037b1:	8b 90 a8 0f 01 00    	mov    0x10fa8(%eax),%edx
  8037b7:	0f b7 4d e8          	movzwl -0x18(%ebp),%ecx
  8037bb:	8b 5d f4             	mov    -0xc(%ebp),%ebx
  8037be:	69 db c2 01 00 00    	imul   $0x1c2,%ebx,%ebx
  8037c4:	01 d9                	add    %ebx,%ecx
  8037c6:	81 c1 e8 15 00 00    	add    $0x15e8,%ecx
  8037cc:	0f b7 54 4a 04       	movzwl 0x4(%edx,%ecx,2),%edx
  8037d1:	66 01 55 fa          	add    %dx,-0x6(%ebp)
  8037d5:	83 45 f4 01          	addl   $0x1,-0xc(%ebp)
  8037d9:	83 7d f4 05          	cmpl   $0x5,-0xc(%ebp)
  8037dd:	7e d2                	jle    8037b1 <PAL_GetPlayerDexterity+0x3a>
  8037df:	0f b7 45 fa          	movzwl -0x6(%ebp),%eax
  8037e3:	83 c4 14             	add    $0x14,%esp
  8037e6:	5b                   	pop    %ebx
  8037e7:	5d                   	pop    %ebp
  8037e8:	c3                   	ret    

008037e9 <PAL_GetPlayerFleeRate>:
  8037e9:	55                   	push   %ebp
  8037ea:	89 e5                	mov    %esp,%ebp
  8037ec:	53                   	push   %ebx
  8037ed:	83 ec 14             	sub    $0x14,%esp
  8037f0:	e8 89 ca ff ff       	call   80027e <__x86.get_pc_thunk.ax>
  8037f5:	05 0b 78 04 00       	add    $0x4780b,%eax
  8037fa:	8b 55 08             	mov    0x8(%ebp),%edx
  8037fd:	66 89 55 e8          	mov    %dx,-0x18(%ebp)
  803801:	8b 90 a8 0f 01 00    	mov    0x10fa8(%eax),%edx
  803807:	0f b7 4d e8          	movzwl -0x18(%ebp),%ecx
  80380b:	81 c1 58 13 00 00    	add    $0x1358,%ecx
  803811:	0f b7 54 4a 14       	movzwl 0x14(%edx,%ecx,2),%edx
  803816:	66 89 55 fa          	mov    %dx,-0x6(%ebp)
  80381a:	c7 45 f4 00 00 00 00 	movl   $0x0,-0xc(%ebp)
  803821:	eb 28                	jmp    80384b <PAL_GetPlayerFleeRate+0x62>
  803823:	8b 90 a8 0f 01 00    	mov    0x10fa8(%eax),%edx
  803829:	0f b7 4d e8          	movzwl -0x18(%ebp),%ecx
  80382d:	8b 5d f4             	mov    -0xc(%ebp),%ebx
  803830:	69 db c2 01 00 00    	imul   $0x1c2,%ebx,%ebx
  803836:	01 d9                	add    %ebx,%ecx
  803838:	81 c1 e8 15 00 00    	add    $0x15e8,%ecx
  80383e:	0f b7 54 4a 10       	movzwl 0x10(%edx,%ecx,2),%edx
  803843:	66 01 55 fa          	add    %dx,-0x6(%ebp)
  803847:	83 45 f4 01          	addl   $0x1,-0xc(%ebp)
  80384b:	83 7d f4 06          	cmpl   $0x6,-0xc(%ebp)
  80384f:	7e d2                	jle    803823 <PAL_GetPlayerFleeRate+0x3a>
  803851:	0f b7 45 fa          	movzwl -0x6(%ebp),%eax
  803855:	83 c4 14             	add    $0x14,%esp
  803858:	5b                   	pop    %ebx
  803859:	5d                   	pop    %ebp
  80385a:	c3                   	ret    

0080385b <PAL_GetPlayerPoisonResistance>:
  80385b:	55                   	push   %ebp
  80385c:	89 e5                	mov    %esp,%ebp
  80385e:	53                   	push   %ebx
  80385f:	83 ec 14             	sub    $0x14,%esp
  803862:	e8 17 ca ff ff       	call   80027e <__x86.get_pc_thunk.ax>
  803867:	05 99 77 04 00       	add    $0x47799,%eax
  80386c:	8b 55 08             	mov    0x8(%ebp),%edx
  80386f:	66 89 55 e8          	mov    %dx,-0x18(%ebp)
  803873:	8b 90 a8 0f 01 00    	mov    0x10fa8(%eax),%edx
  803879:	0f b7 4d e8          	movzwl -0x18(%ebp),%ecx
  80387d:	81 c1 60 13 00 00    	add    $0x1360,%ecx
  803883:	0f b7 54 4a 10       	movzwl 0x10(%edx,%ecx,2),%edx
  803888:	66 89 55 fa          	mov    %dx,-0x6(%ebp)
  80388c:	c7 45 f4 00 00 00 00 	movl   $0x0,-0xc(%ebp)
  803893:	eb 28                	jmp    8038bd <PAL_GetPlayerPoisonResistance+0x62>
  803895:	8b 90 a8 0f 01 00    	mov    0x10fa8(%eax),%edx
  80389b:	0f b7 4d e8          	movzwl -0x18(%ebp),%ecx
  80389f:	8b 5d f4             	mov    -0xc(%ebp),%ebx
  8038a2:	69 db c2 01 00 00    	imul   $0x1c2,%ebx,%ebx
  8038a8:	01 d9                	add    %ebx,%ecx
  8038aa:	81 c1 f0 15 00 00    	add    $0x15f0,%ecx
  8038b0:	0f b7 54 4a 0c       	movzwl 0xc(%edx,%ecx,2),%edx
  8038b5:	66 01 55 fa          	add    %dx,-0x6(%ebp)
  8038b9:	83 45 f4 01          	addl   $0x1,-0xc(%ebp)
  8038bd:	83 7d f4 06          	cmpl   $0x6,-0xc(%ebp)
  8038c1:	7e d2                	jle    803895 <PAL_GetPlayerPoisonResistance+0x3a>
  8038c3:	66 83 7d fa 64       	cmpw   $0x64,-0x6(%ebp)
  8038c8:	76 06                	jbe    8038d0 <PAL_GetPlayerPoisonResistance+0x75>
  8038ca:	66 c7 45 fa 64 00    	movw   $0x64,-0x6(%ebp)
  8038d0:	0f b7 45 fa          	movzwl -0x6(%ebp),%eax
  8038d4:	83 c4 14             	add    $0x14,%esp
  8038d7:	5b                   	pop    %ebx
  8038d8:	5d                   	pop    %ebp
  8038d9:	c3                   	ret    

008038da <PAL_GetPlayerElementalResistance>:
  8038da:	55                   	push   %ebp
  8038db:	89 e5                	mov    %esp,%ebp
  8038dd:	57                   	push   %edi
  8038de:	56                   	push   %esi
  8038df:	53                   	push   %ebx
  8038e0:	83 ec 14             	sub    $0x14,%esp
  8038e3:	e8 d4 0a 00 00       	call   8043bc <__x86.get_pc_thunk.dx>
  8038e8:	81 c2 18 77 04 00    	add    $0x47718,%edx
  8038ee:	8b 45 08             	mov    0x8(%ebp),%eax
  8038f1:	66 89 45 e0          	mov    %ax,-0x20(%ebp)
  8038f5:	8b 9a a8 0f 01 00    	mov    0x10fa8(%edx),%ebx
  8038fb:	0f b7 75 e0          	movzwl -0x20(%ebp),%esi
  8038ff:	8b 4d 0c             	mov    0xc(%ebp),%ecx
  803902:	89 c8                	mov    %ecx,%eax
  803904:	01 c0                	add    %eax,%eax
  803906:	01 c8                	add    %ecx,%eax
  803908:	01 c0                	add    %eax,%eax
  80390a:	01 f0                	add    %esi,%eax
  80390c:	05 68 13 00 00       	add    $0x1368,%eax
  803911:	0f b7 44 43 0c       	movzwl 0xc(%ebx,%eax,2),%eax
  803916:	66 89 45 f2          	mov    %ax,-0xe(%ebp)
  80391a:	c7 45 ec 00 00 00 00 	movl   $0x0,-0x14(%ebp)
  803921:	eb 34                	jmp    803957 <PAL_GetPlayerElementalResistance+0x7d>
  803923:	8b 9a a8 0f 01 00    	mov    0x10fa8(%edx),%ebx
  803929:	0f b7 75 e0          	movzwl -0x20(%ebp),%esi
  80392d:	8b 4d 0c             	mov    0xc(%ebp),%ecx
  803930:	8b 7d ec             	mov    -0x14(%ebp),%edi
  803933:	89 c8                	mov    %ecx,%eax
  803935:	01 c0                	add    %eax,%eax
  803937:	01 c8                	add    %ecx,%eax
  803939:	01 c0                	add    %eax,%eax
  80393b:	69 cf c2 01 00 00    	imul   $0x1c2,%edi,%ecx
  803941:	01 c8                	add    %ecx,%eax
  803943:	01 f0                	add    %esi,%eax
  803945:	05 f8 15 00 00       	add    $0x15f8,%eax
  80394a:	0f b7 44 43 08       	movzwl 0x8(%ebx,%eax,2),%eax
  80394f:	66 01 45 f2          	add    %ax,-0xe(%ebp)
  803953:	83 45 ec 01          	addl   $0x1,-0x14(%ebp)
  803957:	83 7d ec 06          	cmpl   $0x6,-0x14(%ebp)
  80395b:	7e c6                	jle    803923 <PAL_GetPlayerElementalResistance+0x49>
  80395d:	66 83 7d f2 64       	cmpw   $0x64,-0xe(%ebp)
  803962:	76 06                	jbe    80396a <PAL_GetPlayerElementalResistance+0x90>
  803964:	66 c7 45 f2 64 00    	movw   $0x64,-0xe(%ebp)
  80396a:	0f b7 45 f2          	movzwl -0xe(%ebp),%eax
  80396e:	83 c4 14             	add    $0x14,%esp
  803971:	5b                   	pop    %ebx
  803972:	5e                   	pop    %esi
  803973:	5f                   	pop    %edi
  803974:	5d                   	pop    %ebp
  803975:	c3                   	ret    

00803976 <PAL_GetPlayerBattleSprite>:
  803976:	55                   	push   %ebp
  803977:	89 e5                	mov    %esp,%ebp
  803979:	53                   	push   %ebx
  80397a:	83 ec 14             	sub    $0x14,%esp
  80397d:	e8 fc c8 ff ff       	call   80027e <__x86.get_pc_thunk.ax>
  803982:	05 7e 76 04 00       	add    $0x4767e,%eax
  803987:	8b 55 08             	mov    0x8(%ebp),%edx
  80398a:	66 89 55 e8          	mov    %dx,-0x18(%ebp)
  80398e:	8b 90 a8 0f 01 00    	mov    0x10fa8(%eax),%edx
  803994:	0f b7 4d e8          	movzwl -0x18(%ebp),%ecx
  803998:	81 c1 e0 12 00 00    	add    $0x12e0,%ecx
  80399e:	0f b7 54 4a 14       	movzwl 0x14(%edx,%ecx,2),%edx
  8039a3:	66 89 55 f6          	mov    %dx,-0xa(%ebp)
  8039a7:	c7 45 f8 00 00 00 00 	movl   $0x0,-0x8(%ebp)
  8039ae:	eb 4d                	jmp    8039fd <PAL_GetPlayerBattleSprite+0x87>
  8039b0:	8b 90 a8 0f 01 00    	mov    0x10fa8(%eax),%edx
  8039b6:	0f b7 4d e8          	movzwl -0x18(%ebp),%ecx
  8039ba:	8b 5d f8             	mov    -0x8(%ebp),%ebx
  8039bd:	69 db c2 01 00 00    	imul   $0x1c2,%ebx,%ebx
  8039c3:	01 d9                	add    %ebx,%ecx
  8039c5:	81 c1 70 15 00 00    	add    $0x1570,%ecx
  8039cb:	0f b7 54 4a 10       	movzwl 0x10(%edx,%ecx,2),%edx
  8039d0:	66 85 d2             	test   %dx,%dx
  8039d3:	74 24                	je     8039f9 <PAL_GetPlayerBattleSprite+0x83>
  8039d5:	8b 90 a8 0f 01 00    	mov    0x10fa8(%eax),%edx
  8039db:	0f b7 4d e8          	movzwl -0x18(%ebp),%ecx
  8039df:	8b 5d f8             	mov    -0x8(%ebp),%ebx
  8039e2:	69 db c2 01 00 00    	imul   $0x1c2,%ebx,%ebx
  8039e8:	01 d9                	add    %ebx,%ecx
  8039ea:	81 c1 70 15 00 00    	add    $0x1570,%ecx
  8039f0:	0f b7 54 4a 10       	movzwl 0x10(%edx,%ecx,2),%edx
  8039f5:	66 89 55 f6          	mov    %dx,-0xa(%ebp)
  8039f9:	83 45 f8 01          	addl   $0x1,-0x8(%ebp)
  8039fd:	83 7d f8 06          	cmpl   $0x6,-0x8(%ebp)
  803a01:	7e ad                	jle    8039b0 <PAL_GetPlayerBattleSprite+0x3a>
  803a03:	0f b7 45 f6          	movzwl -0xa(%ebp),%eax
  803a07:	83 c4 14             	add    $0x14,%esp
  803a0a:	5b                   	pop    %ebx
  803a0b:	5d                   	pop    %ebp
  803a0c:	c3                   	ret    

00803a0d <PAL_GetPlayerCooperativeMagic>:
  803a0d:	55                   	push   %ebp
  803a0e:	89 e5                	mov    %esp,%ebp
  803a10:	53                   	push   %ebx
  803a11:	83 ec 14             	sub    $0x14,%esp
  803a14:	e8 65 c8 ff ff       	call   80027e <__x86.get_pc_thunk.ax>
  803a19:	05 e7 75 04 00       	add    $0x475e7,%eax
  803a1e:	8b 55 08             	mov    0x8(%ebp),%edx
  803a21:	66 89 55 e8          	mov    %dx,-0x18(%ebp)
  803a25:	8b 90 a8 0f 01 00    	mov    0x10fa8(%eax),%edx
  803a2b:	0f b7 4d e8          	movzwl -0x18(%ebp),%ecx
  803a2f:	81 c1 60 14 00 00    	add    $0x1460,%ecx
  803a35:	0f b7 54 4a 14       	movzwl 0x14(%edx,%ecx,2),%edx
  803a3a:	66 89 55 f6          	mov    %dx,-0xa(%ebp)
  803a3e:	c7 45 f8 00 00 00 00 	movl   $0x0,-0x8(%ebp)
  803a45:	eb 4d                	jmp    803a94 <PAL_GetPlayerCooperativeMagic+0x87>
  803a47:	8b 90 a8 0f 01 00    	mov    0x10fa8(%eax),%edx
  803a4d:	0f b7 4d e8          	movzwl -0x18(%ebp),%ecx
  803a51:	8b 5d f8             	mov    -0x8(%ebp),%ebx
  803a54:	69 db c2 01 00 00    	imul   $0x1c2,%ebx,%ebx
  803a5a:	01 d9                	add    %ebx,%ecx
  803a5c:	81 c1 f0 16 00 00    	add    $0x16f0,%ecx
  803a62:	0f b7 54 4a 10       	movzwl 0x10(%edx,%ecx,2),%edx
  803a67:	66 85 d2             	test   %dx,%dx
  803a6a:	74 24                	je     803a90 <PAL_GetPlayerCooperativeMagic+0x83>
  803a6c:	8b 90 a8 0f 01 00    	mov    0x10fa8(%eax),%edx
  803a72:	0f b7 4d e8          	movzwl -0x18(%ebp),%ecx
  803a76:	8b 5d f8             	mov    -0x8(%ebp),%ebx
  803a79:	69 db c2 01 00 00    	imul   $0x1c2,%ebx,%ebx
  803a7f:	01 d9                	add    %ebx,%ecx
  803a81:	81 c1 f0 16 00 00    	add    $0x16f0,%ecx
  803a87:	0f b7 54 4a 10       	movzwl 0x10(%edx,%ecx,2),%edx
  803a8c:	66 89 55 f6          	mov    %dx,-0xa(%ebp)
  803a90:	83 45 f8 01          	addl   $0x1,-0x8(%ebp)
  803a94:	83 7d f8 06          	cmpl   $0x6,-0x8(%ebp)
  803a98:	7e ad                	jle    803a47 <PAL_GetPlayerCooperativeMagic+0x3a>
  803a9a:	0f b7 45 f6          	movzwl -0xa(%ebp),%eax
  803a9e:	83 c4 14             	add    $0x14,%esp
  803aa1:	5b                   	pop    %ebx
  803aa2:	5d                   	pop    %ebp
  803aa3:	c3                   	ret    

00803aa4 <PAL_PlayerCanAttackAll>:
  803aa4:	55                   	push   %ebp
  803aa5:	89 e5                	mov    %esp,%ebp
  803aa7:	53                   	push   %ebx
  803aa8:	83 ec 14             	sub    $0x14,%esp
  803aab:	e8 ce c7 ff ff       	call   80027e <__x86.get_pc_thunk.ax>
  803ab0:	05 50 75 04 00       	add    $0x47550,%eax
  803ab5:	8b 55 08             	mov    0x8(%ebp),%edx
  803ab8:	66 89 55 e8          	mov    %dx,-0x18(%ebp)
  803abc:	c7 45 f4 00 00 00 00 	movl   $0x0,-0xc(%ebp)
  803ac3:	c7 45 f8 00 00 00 00 	movl   $0x0,-0x8(%ebp)
  803aca:	eb 32                	jmp    803afe <PAL_PlayerCanAttackAll+0x5a>
  803acc:	8b 90 a8 0f 01 00    	mov    0x10fa8(%eax),%edx
  803ad2:	0f b7 4d e8          	movzwl -0x18(%ebp),%ecx
  803ad6:	8b 5d f8             	mov    -0x8(%ebp),%ebx
  803ad9:	69 db c2 01 00 00    	imul   $0x1c2,%ebx,%ebx
  803adf:	01 d9                	add    %ebx,%ecx
  803ae1:	81 c1 88 15 00 00    	add    $0x1588,%ecx
  803ae7:	0f b7 54 4a 04       	movzwl 0x4(%edx,%ecx,2),%edx
  803aec:	66 85 d2             	test   %dx,%dx
  803aef:	74 09                	je     803afa <PAL_PlayerCanAttackAll+0x56>
  803af1:	c7 45 f4 01 00 00 00 	movl   $0x1,-0xc(%ebp)
  803af8:	eb 0a                	jmp    803b04 <PAL_PlayerCanAttackAll+0x60>
  803afa:	83 45 f8 01          	addl   $0x1,-0x8(%ebp)
  803afe:	83 7d f8 06          	cmpl   $0x6,-0x8(%ebp)
  803b02:	7e c8                	jle    803acc <PAL_PlayerCanAttackAll+0x28>
  803b04:	8b 45 f4             	mov    -0xc(%ebp),%eax
  803b07:	83 c4 14             	add    $0x14,%esp
  803b0a:	5b                   	pop    %ebx
  803b0b:	5d                   	pop    %ebp
  803b0c:	c3                   	ret    

00803b0d <PAL_AddMagic>:
  803b0d:	55                   	push   %ebp
  803b0e:	89 e5                	mov    %esp,%ebp
  803b10:	56                   	push   %esi
  803b11:	53                   	push   %ebx
  803b12:	83 ec 18             	sub    $0x18,%esp
  803b15:	e8 a2 08 00 00       	call   8043bc <__x86.get_pc_thunk.dx>
  803b1a:	81 c2 e6 74 04 00    	add    $0x474e6,%edx
  803b20:	8b 4d 08             	mov    0x8(%ebp),%ecx
  803b23:	8b 45 0c             	mov    0xc(%ebp),%eax
  803b26:	66 89 4d e4          	mov    %cx,-0x1c(%ebp)
  803b2a:	66 89 45 e0          	mov    %ax,-0x20(%ebp)
  803b2e:	c7 45 f4 00 00 00 00 	movl   $0x0,-0xc(%ebp)
  803b35:	eb 32                	jmp    803b69 <PAL_AddMagic+0x5c>
  803b37:	8b 9a a8 0f 01 00    	mov    0x10fa8(%edx),%ebx
  803b3d:	0f b7 75 e4          	movzwl -0x1c(%ebp),%esi
  803b41:	8b 4d f4             	mov    -0xc(%ebp),%ecx
  803b44:	89 c8                	mov    %ecx,%eax
  803b46:	01 c0                	add    %eax,%eax
  803b48:	01 c8                	add    %ecx,%eax
  803b4a:	01 c0                	add    %eax,%eax
  803b4c:	01 f0                	add    %esi,%eax
  803b4e:	05 a0 13 00 00       	add    $0x13a0,%eax
  803b53:	0f b7 44 43 08       	movzwl 0x8(%ebx,%eax,2),%eax
  803b58:	66 3b 45 e0          	cmp    -0x20(%ebp),%ax
  803b5c:	75 07                	jne    803b65 <PAL_AddMagic+0x58>
  803b5e:	b8 00 00 00 00       	mov    $0x0,%eax
  803b63:	eb 7e                	jmp    803be3 <PAL_AddMagic+0xd6>
  803b65:	83 45 f4 01          	addl   $0x1,-0xc(%ebp)
  803b69:	83 7d f4 1f          	cmpl   $0x1f,-0xc(%ebp)
  803b6d:	7e c8                	jle    803b37 <PAL_AddMagic+0x2a>
  803b6f:	c7 45 f4 00 00 00 00 	movl   $0x0,-0xc(%ebp)
  803b76:	eb 2a                	jmp    803ba2 <PAL_AddMagic+0x95>
  803b78:	8b 9a a8 0f 01 00    	mov    0x10fa8(%edx),%ebx
  803b7e:	0f b7 75 e4          	movzwl -0x1c(%ebp),%esi
  803b82:	8b 4d f4             	mov    -0xc(%ebp),%ecx
  803b85:	89 c8                	mov    %ecx,%eax
  803b87:	01 c0                	add    %eax,%eax
  803b89:	01 c8                	add    %ecx,%eax
  803b8b:	01 c0                	add    %eax,%eax
  803b8d:	01 f0                	add    %esi,%eax
  803b8f:	05 a0 13 00 00       	add    $0x13a0,%eax
  803b94:	0f b7 44 43 08       	movzwl 0x8(%ebx,%eax,2),%eax
  803b99:	66 85 c0             	test   %ax,%ax
  803b9c:	74 0c                	je     803baa <PAL_AddMagic+0x9d>
  803b9e:	83 45 f4 01          	addl   $0x1,-0xc(%ebp)
  803ba2:	83 7d f4 1f          	cmpl   $0x1f,-0xc(%ebp)
  803ba6:	7e d0                	jle    803b78 <PAL_AddMagic+0x6b>
  803ba8:	eb 01                	jmp    803bab <PAL_AddMagic+0x9e>
  803baa:	90                   	nop
  803bab:	83 7d f4 1f          	cmpl   $0x1f,-0xc(%ebp)
  803baf:	7e 07                	jle    803bb8 <PAL_AddMagic+0xab>
  803bb1:	b8 00 00 00 00       	mov    $0x0,%eax
  803bb6:	eb 2b                	jmp    803be3 <PAL_AddMagic+0xd6>
  803bb8:	8b 8a a8 0f 01 00    	mov    0x10fa8(%edx),%ecx
  803bbe:	0f b7 5d e4          	movzwl -0x1c(%ebp),%ebx
  803bc2:	8b 55 f4             	mov    -0xc(%ebp),%edx
  803bc5:	89 d0                	mov    %edx,%eax
  803bc7:	01 c0                	add    %eax,%eax
  803bc9:	01 d0                	add    %edx,%eax
  803bcb:	01 c0                	add    %eax,%eax
  803bcd:	01 d8                	add    %ebx,%eax
  803bcf:	8d 90 a0 13 00 00    	lea    0x13a0(%eax),%edx
  803bd5:	0f b7 45 e0          	movzwl -0x20(%ebp),%eax
  803bd9:	66 89 44 51 08       	mov    %ax,0x8(%ecx,%edx,2)
  803bde:	b8 01 00 00 00       	mov    $0x1,%eax
  803be3:	83 c4 18             	add    $0x18,%esp
  803be6:	5b                   	pop    %ebx
  803be7:	5e                   	pop    %esi
  803be8:	5d                   	pop    %ebp
  803be9:	c3                   	ret    

00803bea <PAL_RemoveMagic>:
  803bea:	55                   	push   %ebp
  803beb:	89 e5                	mov    %esp,%ebp
  803bed:	56                   	push   %esi
  803bee:	53                   	push   %ebx
  803bef:	83 ec 18             	sub    $0x18,%esp
  803bf2:	e8 c5 07 00 00       	call   8043bc <__x86.get_pc_thunk.dx>
  803bf7:	81 c2 09 74 04 00    	add    $0x47409,%edx
  803bfd:	8b 4d 08             	mov    0x8(%ebp),%ecx
  803c00:	8b 45 0c             	mov    0xc(%ebp),%eax
  803c03:	66 89 4d e4          	mov    %cx,-0x1c(%ebp)
  803c07:	66 89 45 e0          	mov    %ax,-0x20(%ebp)
  803c0b:	c7 45 f4 00 00 00 00 	movl   $0x0,-0xc(%ebp)
  803c12:	eb 50                	jmp    803c64 <PAL_RemoveMagic+0x7a>
  803c14:	8b 9a a8 0f 01 00    	mov    0x10fa8(%edx),%ebx
  803c1a:	0f b7 75 e4          	movzwl -0x1c(%ebp),%esi
  803c1e:	8b 4d f4             	mov    -0xc(%ebp),%ecx
  803c21:	89 c8                	mov    %ecx,%eax
  803c23:	01 c0                	add    %eax,%eax
  803c25:	01 c8                	add    %ecx,%eax
  803c27:	01 c0                	add    %eax,%eax
  803c29:	01 f0                	add    %esi,%eax
  803c2b:	05 a0 13 00 00       	add    $0x13a0,%eax
  803c30:	0f b7 44 43 08       	movzwl 0x8(%ebx,%eax,2),%eax
  803c35:	66 3b 45 e0          	cmp    -0x20(%ebp),%ax
  803c39:	75 25                	jne    803c60 <PAL_RemoveMagic+0x76>
  803c3b:	8b 8a a8 0f 01 00    	mov    0x10fa8(%edx),%ecx
  803c41:	0f b7 5d e4          	movzwl -0x1c(%ebp),%ebx
  803c45:	8b 55 f4             	mov    -0xc(%ebp),%edx
  803c48:	89 d0                	mov    %edx,%eax
  803c4a:	01 c0                	add    %eax,%eax
  803c4c:	01 d0                	add    %edx,%eax
  803c4e:	01 c0                	add    %eax,%eax
  803c50:	01 d8                	add    %ebx,%eax
  803c52:	05 a0 13 00 00       	add    $0x13a0,%eax
  803c57:	66 c7 44 41 08 00 00 	movw   $0x0,0x8(%ecx,%eax,2)
  803c5e:	eb 0a                	jmp    803c6a <PAL_RemoveMagic+0x80>
  803c60:	83 45 f4 01          	addl   $0x1,-0xc(%ebp)
  803c64:	83 7d f4 1f          	cmpl   $0x1f,-0xc(%ebp)
  803c68:	7e aa                	jle    803c14 <PAL_RemoveMagic+0x2a>
  803c6a:	90                   	nop
  803c6b:	83 c4 18             	add    $0x18,%esp
  803c6e:	5b                   	pop    %ebx
  803c6f:	5e                   	pop    %esi
  803c70:	5d                   	pop    %ebp
  803c71:	c3                   	ret    

00803c72 <PAL_SetPlayerStatus>:
  803c72:	55                   	push   %ebp
  803c73:	89 e5                	mov    %esp,%ebp
  803c75:	56                   	push   %esi
  803c76:	53                   	push   %ebx
  803c77:	83 ec 10             	sub    $0x10,%esp
  803c7a:	e8 03 c6 ff ff       	call   800282 <__x86.get_pc_thunk.bx>
  803c7f:	81 c3 81 73 04 00    	add    $0x47381,%ebx
  803c85:	8b 4d 08             	mov    0x8(%ebp),%ecx
  803c88:	8b 55 0c             	mov    0xc(%ebp),%edx
  803c8b:	8b 45 10             	mov    0x10(%ebp),%eax
  803c8e:	66 89 4d f4          	mov    %cx,-0xc(%ebp)
  803c92:	66 89 55 f0          	mov    %dx,-0x10(%ebp)
  803c96:	66 89 45 ec          	mov    %ax,-0x14(%ebp)
  803c9a:	66 83 7d f0 01       	cmpw   $0x1,-0x10(%ebp)
  803c9f:	75 39                	jne    803cda <PAL_SetPlayerStatus+0x68>
  803ca1:	8b 8b a8 0f 01 00    	mov    0x10fa8(%ebx),%ecx
  803ca7:	0f b7 55 f4          	movzwl -0xc(%ebp),%edx
  803cab:	89 d0                	mov    %edx,%eax
  803cad:	c1 e0 03             	shl    $0x3,%eax
  803cb0:	01 d0                	add    %edx,%eax
  803cb2:	01 c0                	add    %eax,%eax
  803cb4:	01 c8                	add    %ecx,%eax
  803cb6:	05 8e 43 00 00       	add    $0x438e,%eax
  803cbb:	0f b7 00             	movzwl (%eax),%eax
  803cbe:	66 85 c0             	test   %ax,%ax
  803cc1:	74 17                	je     803cda <PAL_SetPlayerStatus+0x68>
  803cc3:	0f b7 45 f4          	movzwl -0xc(%ebp),%eax
  803cc7:	83 ec 08             	sub    $0x8,%esp
  803cca:	6a 07                	push   $0x7
  803ccc:	50                   	push   %eax
  803ccd:	e8 f9 01 00 00       	call   803ecb <PAL_RemovePlayerStatus>
  803cd2:	83 c4 10             	add    $0x10,%esp
  803cd5:	e9 ea 01 00 00       	jmp    803ec4 <.L269+0xac>
  803cda:	66 83 7d f0 07       	cmpw   $0x7,-0x10(%ebp)
  803cdf:	75 39                	jne    803d1a <PAL_SetPlayerStatus+0xa8>
  803ce1:	8b 8b a8 0f 01 00    	mov    0x10fa8(%ebx),%ecx
  803ce7:	0f b7 55 f4          	movzwl -0xc(%ebp),%edx
  803ceb:	89 d0                	mov    %edx,%eax
  803ced:	c1 e0 03             	shl    $0x3,%eax
  803cf0:	01 d0                	add    %edx,%eax
  803cf2:	01 c0                	add    %eax,%eax
  803cf4:	01 c8                	add    %ecx,%eax
  803cf6:	05 82 43 00 00       	add    $0x4382,%eax
  803cfb:	0f b7 00             	movzwl (%eax),%eax
  803cfe:	66 85 c0             	test   %ax,%ax
  803d01:	74 17                	je     803d1a <PAL_SetPlayerStatus+0xa8>
  803d03:	0f b7 45 f4          	movzwl -0xc(%ebp),%eax
  803d07:	83 ec 08             	sub    $0x8,%esp
  803d0a:	6a 01                	push   $0x1
  803d0c:	50                   	push   %eax
  803d0d:	e8 b9 01 00 00       	call   803ecb <PAL_RemovePlayerStatus>
  803d12:	83 c4 10             	add    $0x10,%esp
  803d15:	e9 aa 01 00 00       	jmp    803ec4 <.L269+0xac>
  803d1a:	0f b7 45 f0          	movzwl -0x10(%ebp),%eax
  803d1e:	83 f8 08             	cmp    $0x8,%eax
  803d21:	0f 87 5c 01 00 00    	ja     803e83 <.L269+0x6b>
  803d27:	c1 e0 02             	shl    $0x2,%eax
  803d2a:	8b 84 18 64 69 ff ff 	mov    -0x969c(%eax,%ebx,1),%eax
  803d31:	01 d8                	add    %ebx,%eax
  803d33:	ff e0                	jmp    *%eax

00803d35 <.L266>:
  803d35:	8b 83 a8 0f 01 00    	mov    0x10fa8(%ebx),%eax
  803d3b:	0f b7 55 f4          	movzwl -0xc(%ebp),%edx
  803d3f:	81 c2 10 13 00 00    	add    $0x1310,%edx
  803d45:	0f b7 44 50 14       	movzwl 0x14(%eax,%edx,2),%eax
  803d4a:	66 85 c0             	test   %ax,%ax
  803d4d:	0f 84 6a 01 00 00    	je     803ebd <.L269+0xa5>
  803d53:	8b 8b a8 0f 01 00    	mov    0x10fa8(%ebx),%ecx
  803d59:	0f b7 55 f4          	movzwl -0xc(%ebp),%edx
  803d5d:	0f b7 75 f0          	movzwl -0x10(%ebp),%esi
  803d61:	89 d0                	mov    %edx,%eax
  803d63:	c1 e0 03             	shl    $0x3,%eax
  803d66:	01 d0                	add    %edx,%eax
  803d68:	01 f0                	add    %esi,%eax
  803d6a:	05 c0 21 00 00       	add    $0x21c0,%eax
  803d6f:	0f b7 04 41          	movzwl (%ecx,%eax,2),%eax
  803d73:	66 85 c0             	test   %ax,%ax
  803d76:	0f 85 41 01 00 00    	jne    803ebd <.L269+0xa5>
  803d7c:	8b 8b a8 0f 01 00    	mov    0x10fa8(%ebx),%ecx
  803d82:	0f b7 55 f4          	movzwl -0xc(%ebp),%edx
  803d86:	0f b7 5d f0          	movzwl -0x10(%ebp),%ebx
  803d8a:	89 d0                	mov    %edx,%eax
  803d8c:	c1 e0 03             	shl    $0x3,%eax
  803d8f:	01 d0                	add    %edx,%eax
  803d91:	01 d8                	add    %ebx,%eax
  803d93:	8d 90 c0 21 00 00    	lea    0x21c0(%eax),%edx
  803d99:	0f b7 45 ec          	movzwl -0x14(%ebp),%eax
  803d9d:	66 89 04 51          	mov    %ax,(%ecx,%edx,2)
  803da1:	e9 17 01 00 00       	jmp    803ebd <.L269+0xa5>

00803da6 <.L268>:
  803da6:	8b 83 a8 0f 01 00    	mov    0x10fa8(%ebx),%eax
  803dac:	0f b7 55 f4          	movzwl -0xc(%ebp),%edx
  803db0:	81 c2 10 13 00 00    	add    $0x1310,%edx
  803db6:	0f b7 44 50 14       	movzwl 0x14(%eax,%edx,2),%eax
  803dbb:	66 85 c0             	test   %ax,%ax
  803dbe:	0f 85 fc 00 00 00    	jne    803ec0 <.L269+0xa8>
  803dc4:	8b 8b a8 0f 01 00    	mov    0x10fa8(%ebx),%ecx
  803dca:	0f b7 55 f4          	movzwl -0xc(%ebp),%edx
  803dce:	0f b7 75 f0          	movzwl -0x10(%ebp),%esi
  803dd2:	89 d0                	mov    %edx,%eax
  803dd4:	c1 e0 03             	shl    $0x3,%eax
  803dd7:	01 d0                	add    %edx,%eax
  803dd9:	01 f0                	add    %esi,%eax
  803ddb:	05 c0 21 00 00       	add    $0x21c0,%eax
  803de0:	0f b7 04 41          	movzwl (%ecx,%eax,2),%eax
  803de4:	66 3b 45 ec          	cmp    -0x14(%ebp),%ax
  803de8:	0f 83 d2 00 00 00    	jae    803ec0 <.L269+0xa8>
  803dee:	8b 8b a8 0f 01 00    	mov    0x10fa8(%ebx),%ecx
  803df4:	0f b7 55 f4          	movzwl -0xc(%ebp),%edx
  803df8:	0f b7 5d f0          	movzwl -0x10(%ebp),%ebx
  803dfc:	89 d0                	mov    %edx,%eax
  803dfe:	c1 e0 03             	shl    $0x3,%eax
  803e01:	01 d0                	add    %edx,%eax
  803e03:	01 d8                	add    %ebx,%eax
  803e05:	8d 90 c0 21 00 00    	lea    0x21c0(%eax),%edx
  803e0b:	0f b7 45 ec          	movzwl -0x14(%ebp),%eax
  803e0f:	66 89 04 51          	mov    %ax,(%ecx,%edx,2)
  803e13:	e9 a8 00 00 00       	jmp    803ec0 <.L269+0xa8>

00803e18 <.L269>:
  803e18:	8b 83 a8 0f 01 00    	mov    0x10fa8(%ebx),%eax
  803e1e:	0f b7 55 f4          	movzwl -0xc(%ebp),%edx
  803e22:	81 c2 10 13 00 00    	add    $0x1310,%edx
  803e28:	0f b7 44 50 14       	movzwl 0x14(%eax,%edx,2),%eax
  803e2d:	66 85 c0             	test   %ax,%ax
  803e30:	0f 84 8d 00 00 00    	je     803ec3 <.L269+0xab>
  803e36:	8b 8b a8 0f 01 00    	mov    0x10fa8(%ebx),%ecx
  803e3c:	0f b7 55 f4          	movzwl -0xc(%ebp),%edx
  803e40:	0f b7 75 f0          	movzwl -0x10(%ebp),%esi
  803e44:	89 d0                	mov    %edx,%eax
  803e46:	c1 e0 03             	shl    $0x3,%eax
  803e49:	01 d0                	add    %edx,%eax
  803e4b:	01 f0                	add    %esi,%eax
  803e4d:	05 c0 21 00 00       	add    $0x21c0,%eax
  803e52:	0f b7 04 41          	movzwl (%ecx,%eax,2),%eax
  803e56:	66 3b 45 ec          	cmp    -0x14(%ebp),%ax
  803e5a:	73 67                	jae    803ec3 <.L269+0xab>
  803e5c:	8b 8b a8 0f 01 00    	mov    0x10fa8(%ebx),%ecx
  803e62:	0f b7 55 f4          	movzwl -0xc(%ebp),%edx
  803e66:	0f b7 5d f0          	movzwl -0x10(%ebp),%ebx
  803e6a:	89 d0                	mov    %edx,%eax
  803e6c:	c1 e0 03             	shl    $0x3,%eax
  803e6f:	01 d0                	add    %edx,%eax
  803e71:	01 d8                	add    %ebx,%eax
  803e73:	8d 90 c0 21 00 00    	lea    0x21c0(%eax),%edx
  803e79:	0f b7 45 ec          	movzwl -0x14(%ebp),%eax
  803e7d:	66 89 04 51          	mov    %ax,(%ecx,%edx,2)
  803e81:	eb 40                	jmp    803ec3 <.L269+0xab>
  803e83:	e8 c5 d0 ff ff       	call   800f4d <cli>
  803e88:	83 ec 0c             	sub    $0xc,%esp
  803e8b:	8d 83 15 69 ff ff    	lea    -0x96eb(%ebx),%eax
  803e91:	50                   	push   %eax
  803e92:	8d 83 98 69 ff ff    	lea    -0x9668(%ebx),%eax
  803e98:	50                   	push   %eax
  803e99:	68 de 06 00 00       	push   $0x6de
  803e9e:	8d 83 b4 66 ff ff    	lea    -0x994c(%ebx),%eax
  803ea4:	50                   	push   %eax
  803ea5:	8d 83 1c 69 ff ff    	lea    -0x96e4(%ebx),%eax
  803eab:	50                   	push   %eax
  803eac:	e8 9f e4 02 00       	call   832350 <printf>
  803eb1:	83 c4 20             	add    $0x20,%esp
  803eb4:	b8 01 00 00 00       	mov    $0x1,%eax
  803eb9:	82 90 eb 07 90 eb 04 	adcb   $0x4,-0x146ff815(%eax)
  803ec0:	90                   	nop
  803ec1:	eb 01                	jmp    803ec4 <.L269+0xac>
  803ec3:	90                   	nop
  803ec4:	8d 65 f8             	lea    -0x8(%ebp),%esp
  803ec7:	5b                   	pop    %ebx
  803ec8:	5e                   	pop    %esi
  803ec9:	5d                   	pop    %ebp
  803eca:	c3                   	ret    

00803ecb <PAL_RemovePlayerStatus>:
  803ecb:	55                   	push   %ebp
  803ecc:	89 e5                	mov    %esp,%ebp
  803ece:	56                   	push   %esi
  803ecf:	53                   	push   %ebx
  803ed0:	83 ec 08             	sub    $0x8,%esp
  803ed3:	e8 e4 04 00 00       	call   8043bc <__x86.get_pc_thunk.dx>
  803ed8:	81 c2 28 71 04 00    	add    $0x47128,%edx
  803ede:	8b 4d 08             	mov    0x8(%ebp),%ecx
  803ee1:	8b 45 0c             	mov    0xc(%ebp),%eax
  803ee4:	66 89 4d f4          	mov    %cx,-0xc(%ebp)
  803ee8:	66 89 45 f0          	mov    %ax,-0x10(%ebp)
  803eec:	8b 9a a8 0f 01 00    	mov    0x10fa8(%edx),%ebx
  803ef2:	0f b7 4d f4          	movzwl -0xc(%ebp),%ecx
  803ef6:	0f b7 75 f0          	movzwl -0x10(%ebp),%esi
  803efa:	89 c8                	mov    %ecx,%eax
  803efc:	c1 e0 03             	shl    $0x3,%eax
  803eff:	01 c8                	add    %ecx,%eax
  803f01:	01 f0                	add    %esi,%eax
  803f03:	05 c0 21 00 00       	add    $0x21c0,%eax
  803f08:	0f b7 04 43          	movzwl (%ebx,%eax,2),%eax
  803f0c:	66 3d e7 03          	cmp    $0x3e7,%ax
  803f10:	77 22                	ja     803f34 <PAL_RemovePlayerStatus+0x69>
  803f12:	8b 8a a8 0f 01 00    	mov    0x10fa8(%edx),%ecx
  803f18:	0f b7 55 f4          	movzwl -0xc(%ebp),%edx
  803f1c:	0f b7 5d f0          	movzwl -0x10(%ebp),%ebx
  803f20:	89 d0                	mov    %edx,%eax
  803f22:	c1 e0 03             	shl    $0x3,%eax
  803f25:	01 d0                	add    %edx,%eax
  803f27:	01 d8                	add    %ebx,%eax
  803f29:	05 c0 21 00 00       	add    $0x21c0,%eax
  803f2e:	66 c7 04 41 00 00    	movw   $0x0,(%ecx,%eax,2)
  803f34:	90                   	nop
  803f35:	83 c4 08             	add    $0x8,%esp
  803f38:	5b                   	pop    %ebx
  803f39:	5e                   	pop    %esi
  803f3a:	5d                   	pop    %ebp
  803f3b:	c3                   	ret    

00803f3c <PAL_ClearAllPlayerStatus>:
  803f3c:	55                   	push   %ebp
  803f3d:	89 e5                	mov    %esp,%ebp
  803f3f:	53                   	push   %ebx
  803f40:	83 ec 10             	sub    $0x10,%esp
  803f43:	e8 74 04 00 00       	call   8043bc <__x86.get_pc_thunk.dx>
  803f48:	81 c2 b8 70 04 00    	add    $0x470b8,%edx
  803f4e:	c7 45 f8 00 00 00 00 	movl   $0x0,-0x8(%ebp)
